   1               		.file	"EndpointStream_AVR8.c"
   2               	__SP_H__ = 0x3e
   3               	__SP_L__ = 0x3d
   4               	__SREG__ = 0x3f
   5               	__tmp_reg__ = 0
   6               	__zero_reg__ = 1
   7               		.text
   8               	.Ltext0:
   9               		.cfi_sections	.debug_frame
  10               		.section	.text.Endpoint_Discard_Stream,"ax",@progbits
  11               	.global	Endpoint_Discard_Stream
  13               	Endpoint_Discard_Stream:
  14               	.LVL0:
  15               	.LFB81:
  16               		.file 1 "LUFA/LUFA/Drivers/USB/Core/AVR8/EndpointStream_AVR8.c"
   1:LUFA/LUFA/Drivers/USB/Core/AVR8/EndpointStream_AVR8.c **** /*
   2:LUFA/LUFA/Drivers/USB/Core/AVR8/EndpointStream_AVR8.c ****              LUFA Library
   3:LUFA/LUFA/Drivers/USB/Core/AVR8/EndpointStream_AVR8.c ****      Copyright (C) Dean Camera, 2011.
   4:LUFA/LUFA/Drivers/USB/Core/AVR8/EndpointStream_AVR8.c ****               
   5:LUFA/LUFA/Drivers/USB/Core/AVR8/EndpointStream_AVR8.c ****   dean [at] fourwalledcubicle [dot] com
   6:LUFA/LUFA/Drivers/USB/Core/AVR8/EndpointStream_AVR8.c ****            www.lufa-lib.org
   7:LUFA/LUFA/Drivers/USB/Core/AVR8/EndpointStream_AVR8.c **** */
   8:LUFA/LUFA/Drivers/USB/Core/AVR8/EndpointStream_AVR8.c **** 
   9:LUFA/LUFA/Drivers/USB/Core/AVR8/EndpointStream_AVR8.c **** /*
  10:LUFA/LUFA/Drivers/USB/Core/AVR8/EndpointStream_AVR8.c ****   Copyright 2011  Dean Camera (dean [at] fourwalledcubicle [dot] com)
  11:LUFA/LUFA/Drivers/USB/Core/AVR8/EndpointStream_AVR8.c **** 
  12:LUFA/LUFA/Drivers/USB/Core/AVR8/EndpointStream_AVR8.c ****   Permission to use, copy, modify, distribute, and sell this 
  13:LUFA/LUFA/Drivers/USB/Core/AVR8/EndpointStream_AVR8.c ****   software and its documentation for any purpose is hereby granted
  14:LUFA/LUFA/Drivers/USB/Core/AVR8/EndpointStream_AVR8.c ****   without fee, provided that the above copyright notice appear in 
  15:LUFA/LUFA/Drivers/USB/Core/AVR8/EndpointStream_AVR8.c ****   all copies and that both that the copyright notice and this
  16:LUFA/LUFA/Drivers/USB/Core/AVR8/EndpointStream_AVR8.c ****   permission notice and warranty disclaimer appear in supporting 
  17:LUFA/LUFA/Drivers/USB/Core/AVR8/EndpointStream_AVR8.c ****   documentation, and that the name of the author not be used in 
  18:LUFA/LUFA/Drivers/USB/Core/AVR8/EndpointStream_AVR8.c ****   advertising or publicity pertaining to distribution of the 
  19:LUFA/LUFA/Drivers/USB/Core/AVR8/EndpointStream_AVR8.c ****   software without specific, written prior permission.
  20:LUFA/LUFA/Drivers/USB/Core/AVR8/EndpointStream_AVR8.c **** 
  21:LUFA/LUFA/Drivers/USB/Core/AVR8/EndpointStream_AVR8.c ****   The author disclaim all warranties with regard to this
  22:LUFA/LUFA/Drivers/USB/Core/AVR8/EndpointStream_AVR8.c ****   software, including all implied warranties of merchantability
  23:LUFA/LUFA/Drivers/USB/Core/AVR8/EndpointStream_AVR8.c ****   and fitness.  In no event shall the author be liable for any
  24:LUFA/LUFA/Drivers/USB/Core/AVR8/EndpointStream_AVR8.c ****   special, indirect or consequential damages or any damages
  25:LUFA/LUFA/Drivers/USB/Core/AVR8/EndpointStream_AVR8.c ****   whatsoever resulting from loss of use, data or profits, whether
  26:LUFA/LUFA/Drivers/USB/Core/AVR8/EndpointStream_AVR8.c ****   in an action of contract, negligence or other tortious action,
  27:LUFA/LUFA/Drivers/USB/Core/AVR8/EndpointStream_AVR8.c ****   arising out of or in connection with the use or performance of
  28:LUFA/LUFA/Drivers/USB/Core/AVR8/EndpointStream_AVR8.c ****   this software.
  29:LUFA/LUFA/Drivers/USB/Core/AVR8/EndpointStream_AVR8.c **** */
  30:LUFA/LUFA/Drivers/USB/Core/AVR8/EndpointStream_AVR8.c **** 
  31:LUFA/LUFA/Drivers/USB/Core/AVR8/EndpointStream_AVR8.c **** #define  __INCLUDE_FROM_USB_DRIVER
  32:LUFA/LUFA/Drivers/USB/Core/AVR8/EndpointStream_AVR8.c **** #include "../USBMode.h"
  33:LUFA/LUFA/Drivers/USB/Core/AVR8/EndpointStream_AVR8.c **** 
  34:LUFA/LUFA/Drivers/USB/Core/AVR8/EndpointStream_AVR8.c **** #if defined(USB_CAN_BE_DEVICE)
  35:LUFA/LUFA/Drivers/USB/Core/AVR8/EndpointStream_AVR8.c **** 
  36:LUFA/LUFA/Drivers/USB/Core/AVR8/EndpointStream_AVR8.c **** #include "EndpointStream_AVR8.h"
  37:LUFA/LUFA/Drivers/USB/Core/AVR8/EndpointStream_AVR8.c **** 
  38:LUFA/LUFA/Drivers/USB/Core/AVR8/EndpointStream_AVR8.c **** #if !defined(CONTROL_ONLY_DEVICE)
  39:LUFA/LUFA/Drivers/USB/Core/AVR8/EndpointStream_AVR8.c **** uint8_t Endpoint_Discard_Stream(uint16_t Length,
  40:LUFA/LUFA/Drivers/USB/Core/AVR8/EndpointStream_AVR8.c ****                                 uint16_t* const BytesProcessed)
  41:LUFA/LUFA/Drivers/USB/Core/AVR8/EndpointStream_AVR8.c **** {
  17               		.loc 1 41 1 view -0
  18               		.cfi_startproc
  19               		.loc 1 41 1 is_stmt 0 view .LVU1
  20 0000 CF92      		push r12
  21               	.LCFI0:
  22               		.cfi_def_cfa_offset 3
  23               		.cfi_offset 12, -2
  24 0002 DF92      		push r13
  25               	.LCFI1:
  26               		.cfi_def_cfa_offset 4
  27               		.cfi_offset 13, -3
  28 0004 FF92      		push r15
  29               	.LCFI2:
  30               		.cfi_def_cfa_offset 5
  31               		.cfi_offset 15, -4
  32 0006 0F93      		push r16
  33               	.LCFI3:
  34               		.cfi_def_cfa_offset 6
  35               		.cfi_offset 16, -5
  36 0008 1F93      		push r17
  37               	.LCFI4:
  38               		.cfi_def_cfa_offset 7
  39               		.cfi_offset 17, -6
  40 000a CF93      		push r28
  41               	.LCFI5:
  42               		.cfi_def_cfa_offset 8
  43               		.cfi_offset 28, -7
  44 000c DF93      		push r29
  45               	.LCFI6:
  46               		.cfi_def_cfa_offset 9
  47               		.cfi_offset 29, -8
  48               	/* prologue: function */
  49               	/* frame size = 0 */
  50               	/* stack size = 7 */
  51               	.L__stack_usage = 7
  52 000e EC01      		movw r28,r24
  53 0010 8B01      		movw r16,r22
  42:LUFA/LUFA/Drivers/USB/Core/AVR8/EndpointStream_AVR8.c **** 	uint8_t  ErrorCode;
  54               		.loc 1 42 2 is_stmt 1 view .LVU2
  43:LUFA/LUFA/Drivers/USB/Core/AVR8/EndpointStream_AVR8.c **** 	uint16_t BytesInTransfer = 0;
  55               		.loc 1 43 2 view .LVU3
  56               	.LVL1:
  44:LUFA/LUFA/Drivers/USB/Core/AVR8/EndpointStream_AVR8.c **** 	
  45:LUFA/LUFA/Drivers/USB/Core/AVR8/EndpointStream_AVR8.c **** 	if ((ErrorCode = Endpoint_WaitUntilReady()))
  57               		.loc 1 45 2 view .LVU4
  58               		.loc 1 45 19 is_stmt 0 view .LVU5
  59 0012 0E94 0000 		call Endpoint_WaitUntilReady
  60               	.LVL2:
  61               		.loc 1 45 19 view .LVU6
  62 0016 F82E      		mov r15,r24
  63               	.LVL3:
  64               		.loc 1 45 5 view .LVU7
  65 0018 8111      		cpse r24,__zero_reg__
  66 001a 00C0      		rjmp .L1
  46:LUFA/LUFA/Drivers/USB/Core/AVR8/EndpointStream_AVR8.c **** 	  return ErrorCode;
  47:LUFA/LUFA/Drivers/USB/Core/AVR8/EndpointStream_AVR8.c **** 	  
  48:LUFA/LUFA/Drivers/USB/Core/AVR8/EndpointStream_AVR8.c **** 	if (BytesProcessed != NULL)
  67               		.loc 1 48 2 is_stmt 1 view .LVU8
  68               		.loc 1 48 5 is_stmt 0 view .LVU9
  69 001c 0115      		cp r16,__zero_reg__
  70 001e 1105      		cpc r17,__zero_reg__
  71 0020 01F0      		breq .L3
  49:LUFA/LUFA/Drivers/USB/Core/AVR8/EndpointStream_AVR8.c **** 	  Length -= *BytesProcessed;
  72               		.loc 1 49 4 is_stmt 1 view .LVU10
  73               		.loc 1 49 11 is_stmt 0 view .LVU11
  74 0022 F801      		movw r30,r16
  75 0024 8081      		ld r24,Z
  76 0026 9181      		ldd r25,Z+1
  77 0028 C81B      		sub r28,r24
  78 002a D90B      		sbc r29,r25
  79               	.LVL4:
  80               	.L3:
  41:LUFA/LUFA/Drivers/USB/Core/AVR8/EndpointStream_AVR8.c **** 	uint8_t  ErrorCode;
  81               		.loc 1 41 1 view .LVU12
  82 002c D12C      		mov r13,__zero_reg__
  83 002e C12C      		mov r12,__zero_reg__
  84               	.LVL5:
  85               	.L4:
  50:LUFA/LUFA/Drivers/USB/Core/AVR8/EndpointStream_AVR8.c **** 
  51:LUFA/LUFA/Drivers/USB/Core/AVR8/EndpointStream_AVR8.c **** 	while (Length)
  86               		.loc 1 51 8 is_stmt 1 view .LVU13
  87 0030 2097      		sbiw r28,0
  88 0032 01F0      		breq .L1
  52:LUFA/LUFA/Drivers/USB/Core/AVR8/EndpointStream_AVR8.c **** 	{
  53:LUFA/LUFA/Drivers/USB/Core/AVR8/EndpointStream_AVR8.c **** 		if (!(Endpoint_IsReadWriteAllowed()))
  89               		.loc 1 53 3 view .LVU14
  90               	.LBB256:
  91               	.LBI256:
  92               		.file 2 "LUFA/LUFA/Drivers/USB/Core/AVR8/../AVR8/../AVR8/Endpoint_AVR8.h"
   1:LUFA/LUFA/Drivers/USB/Core/AVR8/../AVR8/../AVR8/Endpoint_AVR8.h **** /*
   2:LUFA/LUFA/Drivers/USB/Core/AVR8/../AVR8/../AVR8/Endpoint_AVR8.h ****              LUFA Library
   3:LUFA/LUFA/Drivers/USB/Core/AVR8/../AVR8/../AVR8/Endpoint_AVR8.h ****      Copyright (C) Dean Camera, 2011.
   4:LUFA/LUFA/Drivers/USB/Core/AVR8/../AVR8/../AVR8/Endpoint_AVR8.h **** 
   5:LUFA/LUFA/Drivers/USB/Core/AVR8/../AVR8/../AVR8/Endpoint_AVR8.h ****   dean [at] fourwalledcubicle [dot] com
   6:LUFA/LUFA/Drivers/USB/Core/AVR8/../AVR8/../AVR8/Endpoint_AVR8.h ****            www.lufa-lib.org
   7:LUFA/LUFA/Drivers/USB/Core/AVR8/../AVR8/../AVR8/Endpoint_AVR8.h **** */
   8:LUFA/LUFA/Drivers/USB/Core/AVR8/../AVR8/../AVR8/Endpoint_AVR8.h **** 
   9:LUFA/LUFA/Drivers/USB/Core/AVR8/../AVR8/../AVR8/Endpoint_AVR8.h **** /*
  10:LUFA/LUFA/Drivers/USB/Core/AVR8/../AVR8/../AVR8/Endpoint_AVR8.h ****   Copyright 2011  Dean Camera (dean [at] fourwalledcubicle [dot] com)
  11:LUFA/LUFA/Drivers/USB/Core/AVR8/../AVR8/../AVR8/Endpoint_AVR8.h **** 
  12:LUFA/LUFA/Drivers/USB/Core/AVR8/../AVR8/../AVR8/Endpoint_AVR8.h ****   Permission to use, copy, modify, distribute, and sell this
  13:LUFA/LUFA/Drivers/USB/Core/AVR8/../AVR8/../AVR8/Endpoint_AVR8.h ****   software and its documentation for any purpose is hereby granted
  14:LUFA/LUFA/Drivers/USB/Core/AVR8/../AVR8/../AVR8/Endpoint_AVR8.h ****   without fee, provided that the above copyright notice appear in
  15:LUFA/LUFA/Drivers/USB/Core/AVR8/../AVR8/../AVR8/Endpoint_AVR8.h ****   all copies and that both that the copyright notice and this
  16:LUFA/LUFA/Drivers/USB/Core/AVR8/../AVR8/../AVR8/Endpoint_AVR8.h ****   permission notice and warranty disclaimer appear in supporting
  17:LUFA/LUFA/Drivers/USB/Core/AVR8/../AVR8/../AVR8/Endpoint_AVR8.h ****   documentation, and that the name of the author not be used in
  18:LUFA/LUFA/Drivers/USB/Core/AVR8/../AVR8/../AVR8/Endpoint_AVR8.h ****   advertising or publicity pertaining to distribution of the
  19:LUFA/LUFA/Drivers/USB/Core/AVR8/../AVR8/../AVR8/Endpoint_AVR8.h ****   software without specific, written prior permission.
  20:LUFA/LUFA/Drivers/USB/Core/AVR8/../AVR8/../AVR8/Endpoint_AVR8.h **** 
  21:LUFA/LUFA/Drivers/USB/Core/AVR8/../AVR8/../AVR8/Endpoint_AVR8.h ****   The author disclaim all warranties with regard to this
  22:LUFA/LUFA/Drivers/USB/Core/AVR8/../AVR8/../AVR8/Endpoint_AVR8.h ****   software, including all implied warranties of merchantability
  23:LUFA/LUFA/Drivers/USB/Core/AVR8/../AVR8/../AVR8/Endpoint_AVR8.h ****   and fitness.  In no event shall the author be liable for any
  24:LUFA/LUFA/Drivers/USB/Core/AVR8/../AVR8/../AVR8/Endpoint_AVR8.h ****   special, indirect or consequential damages or any damages
  25:LUFA/LUFA/Drivers/USB/Core/AVR8/../AVR8/../AVR8/Endpoint_AVR8.h ****   whatsoever resulting from loss of use, data or profits, whether
  26:LUFA/LUFA/Drivers/USB/Core/AVR8/../AVR8/../AVR8/Endpoint_AVR8.h ****   in an action of contract, negligence or other tortious action,
  27:LUFA/LUFA/Drivers/USB/Core/AVR8/../AVR8/../AVR8/Endpoint_AVR8.h ****   arising out of or in connection with the use or performance of
  28:LUFA/LUFA/Drivers/USB/Core/AVR8/../AVR8/../AVR8/Endpoint_AVR8.h ****   this software.
  29:LUFA/LUFA/Drivers/USB/Core/AVR8/../AVR8/../AVR8/Endpoint_AVR8.h **** */
  30:LUFA/LUFA/Drivers/USB/Core/AVR8/../AVR8/../AVR8/Endpoint_AVR8.h **** 
  31:LUFA/LUFA/Drivers/USB/Core/AVR8/../AVR8/../AVR8/Endpoint_AVR8.h **** /** \file
  32:LUFA/LUFA/Drivers/USB/Core/AVR8/../AVR8/../AVR8/Endpoint_AVR8.h ****  *  \brief USB Endpoint definitions for the AVR8 microcontrollers.
  33:LUFA/LUFA/Drivers/USB/Core/AVR8/../AVR8/../AVR8/Endpoint_AVR8.h ****  *  \copydetails Group_EndpointManagement_AVR8
  34:LUFA/LUFA/Drivers/USB/Core/AVR8/../AVR8/../AVR8/Endpoint_AVR8.h ****  *
  35:LUFA/LUFA/Drivers/USB/Core/AVR8/../AVR8/../AVR8/Endpoint_AVR8.h ****  *  \note This file should not be included directly. It is automatically included as needed by the 
  36:LUFA/LUFA/Drivers/USB/Core/AVR8/../AVR8/../AVR8/Endpoint_AVR8.h ****  *        dispatch header located in LUFA/Drivers/USB/USB.h.
  37:LUFA/LUFA/Drivers/USB/Core/AVR8/../AVR8/../AVR8/Endpoint_AVR8.h ****  */
  38:LUFA/LUFA/Drivers/USB/Core/AVR8/../AVR8/../AVR8/Endpoint_AVR8.h **** 
  39:LUFA/LUFA/Drivers/USB/Core/AVR8/../AVR8/../AVR8/Endpoint_AVR8.h **** /** \ingroup Group_EndpointRW
  40:LUFA/LUFA/Drivers/USB/Core/AVR8/../AVR8/../AVR8/Endpoint_AVR8.h ****  *  \defgroup Group_EndpointRW_AVR8 Endpoint Data Reading and Writing (AVR8)
  41:LUFA/LUFA/Drivers/USB/Core/AVR8/../AVR8/../AVR8/Endpoint_AVR8.h ****  *  \brief Endpoint data read/write definitions for the Atmel AVR8 architecture.
  42:LUFA/LUFA/Drivers/USB/Core/AVR8/../AVR8/../AVR8/Endpoint_AVR8.h ****  *
  43:LUFA/LUFA/Drivers/USB/Core/AVR8/../AVR8/../AVR8/Endpoint_AVR8.h ****  *  Functions, macros, variables, enums and types related to data reading and writing from and to e
  44:LUFA/LUFA/Drivers/USB/Core/AVR8/../AVR8/../AVR8/Endpoint_AVR8.h ****  */
  45:LUFA/LUFA/Drivers/USB/Core/AVR8/../AVR8/../AVR8/Endpoint_AVR8.h **** 
  46:LUFA/LUFA/Drivers/USB/Core/AVR8/../AVR8/../AVR8/Endpoint_AVR8.h **** /** \ingroup Group_EndpointPrimitiveRW
  47:LUFA/LUFA/Drivers/USB/Core/AVR8/../AVR8/../AVR8/Endpoint_AVR8.h ****  *  \defgroup Group_EndpointPrimitiveRW_AVR8 Read/Write of Primitive Data Types (AVR8)
  48:LUFA/LUFA/Drivers/USB/Core/AVR8/../AVR8/../AVR8/Endpoint_AVR8.h ****  *  \brief Endpoint primitive read/write definitions for the Atmel AVR8 architecture.
  49:LUFA/LUFA/Drivers/USB/Core/AVR8/../AVR8/../AVR8/Endpoint_AVR8.h ****  *
  50:LUFA/LUFA/Drivers/USB/Core/AVR8/../AVR8/../AVR8/Endpoint_AVR8.h ****  *  Functions, macros, variables, enums and types related to data reading and writing of primitive 
  51:LUFA/LUFA/Drivers/USB/Core/AVR8/../AVR8/../AVR8/Endpoint_AVR8.h ****  *  from and to endpoints.
  52:LUFA/LUFA/Drivers/USB/Core/AVR8/../AVR8/../AVR8/Endpoint_AVR8.h ****  */
  53:LUFA/LUFA/Drivers/USB/Core/AVR8/../AVR8/../AVR8/Endpoint_AVR8.h **** 
  54:LUFA/LUFA/Drivers/USB/Core/AVR8/../AVR8/../AVR8/Endpoint_AVR8.h **** /** \ingroup Group_EndpointPacketManagement
  55:LUFA/LUFA/Drivers/USB/Core/AVR8/../AVR8/../AVR8/Endpoint_AVR8.h ****  *  \defgroup Group_EndpointPacketManagement_AVR8 Endpoint Packet Management (AVR8)
  56:LUFA/LUFA/Drivers/USB/Core/AVR8/../AVR8/../AVR8/Endpoint_AVR8.h ****  *  \brief Endpoint packet management definitions for the Atmel AVR8 architecture.
  57:LUFA/LUFA/Drivers/USB/Core/AVR8/../AVR8/../AVR8/Endpoint_AVR8.h ****  *
  58:LUFA/LUFA/Drivers/USB/Core/AVR8/../AVR8/../AVR8/Endpoint_AVR8.h ****  *  Functions, macros, variables, enums and types related to packet management of endpoints.
  59:LUFA/LUFA/Drivers/USB/Core/AVR8/../AVR8/../AVR8/Endpoint_AVR8.h ****  */
  60:LUFA/LUFA/Drivers/USB/Core/AVR8/../AVR8/../AVR8/Endpoint_AVR8.h **** 
  61:LUFA/LUFA/Drivers/USB/Core/AVR8/../AVR8/../AVR8/Endpoint_AVR8.h **** /** \ingroup Group_EndpointManagement
  62:LUFA/LUFA/Drivers/USB/Core/AVR8/../AVR8/../AVR8/Endpoint_AVR8.h ****  *  \defgroup Group_EndpointManagement_AVR8 Endpoint Management (AVR8)
  63:LUFA/LUFA/Drivers/USB/Core/AVR8/../AVR8/../AVR8/Endpoint_AVR8.h ****  *  \brief Endpoint management definitions for the Atmel AVR8 architecture.
  64:LUFA/LUFA/Drivers/USB/Core/AVR8/../AVR8/../AVR8/Endpoint_AVR8.h ****  *
  65:LUFA/LUFA/Drivers/USB/Core/AVR8/../AVR8/../AVR8/Endpoint_AVR8.h ****  *  Functions, macros and enums related to endpoint management when in USB Device mode. This
  66:LUFA/LUFA/Drivers/USB/Core/AVR8/../AVR8/../AVR8/Endpoint_AVR8.h ****  *  module contains the endpoint management macros, as well as endpoint interrupt and data
  67:LUFA/LUFA/Drivers/USB/Core/AVR8/../AVR8/../AVR8/Endpoint_AVR8.h ****  *  send/receive functions for various data types.
  68:LUFA/LUFA/Drivers/USB/Core/AVR8/../AVR8/../AVR8/Endpoint_AVR8.h ****  *
  69:LUFA/LUFA/Drivers/USB/Core/AVR8/../AVR8/../AVR8/Endpoint_AVR8.h ****  *  @{
  70:LUFA/LUFA/Drivers/USB/Core/AVR8/../AVR8/../AVR8/Endpoint_AVR8.h ****  */
  71:LUFA/LUFA/Drivers/USB/Core/AVR8/../AVR8/../AVR8/Endpoint_AVR8.h **** 
  72:LUFA/LUFA/Drivers/USB/Core/AVR8/../AVR8/../AVR8/Endpoint_AVR8.h **** #ifndef __ENDPOINT_AVR8_H__
  73:LUFA/LUFA/Drivers/USB/Core/AVR8/../AVR8/../AVR8/Endpoint_AVR8.h **** #define __ENDPOINT_AVR8_H__
  74:LUFA/LUFA/Drivers/USB/Core/AVR8/../AVR8/../AVR8/Endpoint_AVR8.h **** 
  75:LUFA/LUFA/Drivers/USB/Core/AVR8/../AVR8/../AVR8/Endpoint_AVR8.h **** 	/* Includes: */
  76:LUFA/LUFA/Drivers/USB/Core/AVR8/../AVR8/../AVR8/Endpoint_AVR8.h **** 		#include "../../../../Common/Common.h"
  77:LUFA/LUFA/Drivers/USB/Core/AVR8/../AVR8/../AVR8/Endpoint_AVR8.h **** 		#include "../USBTask.h"
  78:LUFA/LUFA/Drivers/USB/Core/AVR8/../AVR8/../AVR8/Endpoint_AVR8.h **** 		#include "../USBInterrupt.h"
  79:LUFA/LUFA/Drivers/USB/Core/AVR8/../AVR8/../AVR8/Endpoint_AVR8.h **** 
  80:LUFA/LUFA/Drivers/USB/Core/AVR8/../AVR8/../AVR8/Endpoint_AVR8.h **** 	/* Enable C linkage for C++ Compilers: */
  81:LUFA/LUFA/Drivers/USB/Core/AVR8/../AVR8/../AVR8/Endpoint_AVR8.h **** 		#if defined(__cplusplus)
  82:LUFA/LUFA/Drivers/USB/Core/AVR8/../AVR8/../AVR8/Endpoint_AVR8.h **** 			extern "C" {
  83:LUFA/LUFA/Drivers/USB/Core/AVR8/../AVR8/../AVR8/Endpoint_AVR8.h **** 		#endif
  84:LUFA/LUFA/Drivers/USB/Core/AVR8/../AVR8/../AVR8/Endpoint_AVR8.h **** 
  85:LUFA/LUFA/Drivers/USB/Core/AVR8/../AVR8/../AVR8/Endpoint_AVR8.h **** 	/* Preprocessor Checks: */
  86:LUFA/LUFA/Drivers/USB/Core/AVR8/../AVR8/../AVR8/Endpoint_AVR8.h **** 		#if !defined(__INCLUDE_FROM_USB_DRIVER)
  87:LUFA/LUFA/Drivers/USB/Core/AVR8/../AVR8/../AVR8/Endpoint_AVR8.h **** 			#error Do not include this file directly. Include LUFA/Drivers/USB/USB.h instead.
  88:LUFA/LUFA/Drivers/USB/Core/AVR8/../AVR8/../AVR8/Endpoint_AVR8.h **** 		#endif
  89:LUFA/LUFA/Drivers/USB/Core/AVR8/../AVR8/../AVR8/Endpoint_AVR8.h **** 
  90:LUFA/LUFA/Drivers/USB/Core/AVR8/../AVR8/../AVR8/Endpoint_AVR8.h **** 	/* Private Interface - For use in library only: */
  91:LUFA/LUFA/Drivers/USB/Core/AVR8/../AVR8/../AVR8/Endpoint_AVR8.h **** 	#if !defined(__DOXYGEN__)
  92:LUFA/LUFA/Drivers/USB/Core/AVR8/../AVR8/../AVR8/Endpoint_AVR8.h **** 		/* Macros: */
  93:LUFA/LUFA/Drivers/USB/Core/AVR8/../AVR8/../AVR8/Endpoint_AVR8.h **** 			#define _ENDPOINT_GET_MAXSIZE(EPIndex)         _ENDPOINT_GET_MAXSIZE2(ENDPOINT_DETAILS_EP ## EPI
  94:LUFA/LUFA/Drivers/USB/Core/AVR8/../AVR8/../AVR8/Endpoint_AVR8.h **** 			#define _ENDPOINT_GET_MAXSIZE2(EPDetails)      _ENDPOINT_GET_MAXSIZE3(EPDetails)
  95:LUFA/LUFA/Drivers/USB/Core/AVR8/../AVR8/../AVR8/Endpoint_AVR8.h **** 			#define _ENDPOINT_GET_MAXSIZE3(MaxSize, Banks) (MaxSize)
  96:LUFA/LUFA/Drivers/USB/Core/AVR8/../AVR8/../AVR8/Endpoint_AVR8.h **** 
  97:LUFA/LUFA/Drivers/USB/Core/AVR8/../AVR8/../AVR8/Endpoint_AVR8.h **** 			#define _ENDPOINT_GET_BANKS(EPIndex)           _ENDPOINT_GET_BANKS2(ENDPOINT_DETAILS_EP ## EPInd
  98:LUFA/LUFA/Drivers/USB/Core/AVR8/../AVR8/../AVR8/Endpoint_AVR8.h **** 			#define _ENDPOINT_GET_BANKS2(EPDetails)        _ENDPOINT_GET_BANKS3(EPDetails)
  99:LUFA/LUFA/Drivers/USB/Core/AVR8/../AVR8/../AVR8/Endpoint_AVR8.h **** 			#define _ENDPOINT_GET_BANKS3(MaxSize, Banks)   (Banks)
 100:LUFA/LUFA/Drivers/USB/Core/AVR8/../AVR8/../AVR8/Endpoint_AVR8.h **** 
 101:LUFA/LUFA/Drivers/USB/Core/AVR8/../AVR8/../AVR8/Endpoint_AVR8.h **** 			#if defined(USB_SERIES_4_AVR) || defined(USB_SERIES_6_AVR) || defined(USB_SERIES_7_AVR)
 102:LUFA/LUFA/Drivers/USB/Core/AVR8/../AVR8/../AVR8/Endpoint_AVR8.h **** 				#define ENDPOINT_DETAILS_MAXEP             7
 103:LUFA/LUFA/Drivers/USB/Core/AVR8/../AVR8/../AVR8/Endpoint_AVR8.h **** 
 104:LUFA/LUFA/Drivers/USB/Core/AVR8/../AVR8/../AVR8/Endpoint_AVR8.h **** 				#define ENDPOINT_DETAILS_EP0               64,  1
 105:LUFA/LUFA/Drivers/USB/Core/AVR8/../AVR8/../AVR8/Endpoint_AVR8.h **** 				#define ENDPOINT_DETAILS_EP1               256, 2
 106:LUFA/LUFA/Drivers/USB/Core/AVR8/../AVR8/../AVR8/Endpoint_AVR8.h **** 				#define ENDPOINT_DETAILS_EP2               64,  2
 107:LUFA/LUFA/Drivers/USB/Core/AVR8/../AVR8/../AVR8/Endpoint_AVR8.h **** 				#define ENDPOINT_DETAILS_EP3               64,  2
 108:LUFA/LUFA/Drivers/USB/Core/AVR8/../AVR8/../AVR8/Endpoint_AVR8.h **** 				#define ENDPOINT_DETAILS_EP4               64,  2
 109:LUFA/LUFA/Drivers/USB/Core/AVR8/../AVR8/../AVR8/Endpoint_AVR8.h **** 				#define ENDPOINT_DETAILS_EP5               64,  2
 110:LUFA/LUFA/Drivers/USB/Core/AVR8/../AVR8/../AVR8/Endpoint_AVR8.h **** 				#define ENDPOINT_DETAILS_EP6               64,  2
 111:LUFA/LUFA/Drivers/USB/Core/AVR8/../AVR8/../AVR8/Endpoint_AVR8.h **** 			#else
 112:LUFA/LUFA/Drivers/USB/Core/AVR8/../AVR8/../AVR8/Endpoint_AVR8.h **** 				#define ENDPOINT_DETAILS_MAXEP             5
 113:LUFA/LUFA/Drivers/USB/Core/AVR8/../AVR8/../AVR8/Endpoint_AVR8.h **** 
 114:LUFA/LUFA/Drivers/USB/Core/AVR8/../AVR8/../AVR8/Endpoint_AVR8.h **** 				#define ENDPOINT_DETAILS_EP0               64,  1
 115:LUFA/LUFA/Drivers/USB/Core/AVR8/../AVR8/../AVR8/Endpoint_AVR8.h **** 				#define ENDPOINT_DETAILS_EP1               64,  1
 116:LUFA/LUFA/Drivers/USB/Core/AVR8/../AVR8/../AVR8/Endpoint_AVR8.h **** 				#define ENDPOINT_DETAILS_EP2               64,  1
 117:LUFA/LUFA/Drivers/USB/Core/AVR8/../AVR8/../AVR8/Endpoint_AVR8.h **** 				#define ENDPOINT_DETAILS_EP3               64,  2
 118:LUFA/LUFA/Drivers/USB/Core/AVR8/../AVR8/../AVR8/Endpoint_AVR8.h **** 				#define ENDPOINT_DETAILS_EP4               64,  2
 119:LUFA/LUFA/Drivers/USB/Core/AVR8/../AVR8/../AVR8/Endpoint_AVR8.h **** 			#endif
 120:LUFA/LUFA/Drivers/USB/Core/AVR8/../AVR8/../AVR8/Endpoint_AVR8.h **** 
 121:LUFA/LUFA/Drivers/USB/Core/AVR8/../AVR8/../AVR8/Endpoint_AVR8.h **** 		/* Inline Functions: */
 122:LUFA/LUFA/Drivers/USB/Core/AVR8/../AVR8/../AVR8/Endpoint_AVR8.h **** 			static inline uint8_t Endpoint_BytesToEPSizeMask(const uint16_t Bytes) ATTR_WARN_UNUSED_RESULT A
 123:LUFA/LUFA/Drivers/USB/Core/AVR8/../AVR8/../AVR8/Endpoint_AVR8.h **** 			                                                                       ATTR_ALWAYS_INLINE;
 124:LUFA/LUFA/Drivers/USB/Core/AVR8/../AVR8/../AVR8/Endpoint_AVR8.h **** 			static inline uint8_t Endpoint_BytesToEPSizeMask(const uint16_t Bytes)
 125:LUFA/LUFA/Drivers/USB/Core/AVR8/../AVR8/../AVR8/Endpoint_AVR8.h **** 			{
 126:LUFA/LUFA/Drivers/USB/Core/AVR8/../AVR8/../AVR8/Endpoint_AVR8.h **** 				uint8_t  MaskVal    = 0;
 127:LUFA/LUFA/Drivers/USB/Core/AVR8/../AVR8/../AVR8/Endpoint_AVR8.h **** 				uint16_t CheckBytes = 8;
 128:LUFA/LUFA/Drivers/USB/Core/AVR8/../AVR8/../AVR8/Endpoint_AVR8.h **** 
 129:LUFA/LUFA/Drivers/USB/Core/AVR8/../AVR8/../AVR8/Endpoint_AVR8.h **** 				while (CheckBytes < Bytes)
 130:LUFA/LUFA/Drivers/USB/Core/AVR8/../AVR8/../AVR8/Endpoint_AVR8.h **** 				{
 131:LUFA/LUFA/Drivers/USB/Core/AVR8/../AVR8/../AVR8/Endpoint_AVR8.h **** 					MaskVal++;
 132:LUFA/LUFA/Drivers/USB/Core/AVR8/../AVR8/../AVR8/Endpoint_AVR8.h **** 					CheckBytes <<= 1;
 133:LUFA/LUFA/Drivers/USB/Core/AVR8/../AVR8/../AVR8/Endpoint_AVR8.h **** 				}
 134:LUFA/LUFA/Drivers/USB/Core/AVR8/../AVR8/../AVR8/Endpoint_AVR8.h **** 
 135:LUFA/LUFA/Drivers/USB/Core/AVR8/../AVR8/../AVR8/Endpoint_AVR8.h **** 				return (MaskVal << EPSIZE0);
 136:LUFA/LUFA/Drivers/USB/Core/AVR8/../AVR8/../AVR8/Endpoint_AVR8.h **** 			}
 137:LUFA/LUFA/Drivers/USB/Core/AVR8/../AVR8/../AVR8/Endpoint_AVR8.h **** 
 138:LUFA/LUFA/Drivers/USB/Core/AVR8/../AVR8/../AVR8/Endpoint_AVR8.h **** 		/* Function Prototypes: */
 139:LUFA/LUFA/Drivers/USB/Core/AVR8/../AVR8/../AVR8/Endpoint_AVR8.h **** 			void Endpoint_ClearEndpoints(void);
 140:LUFA/LUFA/Drivers/USB/Core/AVR8/../AVR8/../AVR8/Endpoint_AVR8.h **** 			bool Endpoint_ConfigureEndpoint_Prv(const uint8_t Number,
 141:LUFA/LUFA/Drivers/USB/Core/AVR8/../AVR8/../AVR8/Endpoint_AVR8.h **** 			                                    const uint8_t UECFG0XData,
 142:LUFA/LUFA/Drivers/USB/Core/AVR8/../AVR8/../AVR8/Endpoint_AVR8.h **** 			                                    const uint8_t UECFG1XData);
 143:LUFA/LUFA/Drivers/USB/Core/AVR8/../AVR8/../AVR8/Endpoint_AVR8.h **** 
 144:LUFA/LUFA/Drivers/USB/Core/AVR8/../AVR8/../AVR8/Endpoint_AVR8.h **** 	#endif
 145:LUFA/LUFA/Drivers/USB/Core/AVR8/../AVR8/../AVR8/Endpoint_AVR8.h **** 
 146:LUFA/LUFA/Drivers/USB/Core/AVR8/../AVR8/../AVR8/Endpoint_AVR8.h **** 	/* Public Interface - May be used in end-application: */
 147:LUFA/LUFA/Drivers/USB/Core/AVR8/../AVR8/../AVR8/Endpoint_AVR8.h **** 		/* Macros: */			
 148:LUFA/LUFA/Drivers/USB/Core/AVR8/../AVR8/../AVR8/Endpoint_AVR8.h **** 			/** \name Endpoint Bank Mode Masks */
 149:LUFA/LUFA/Drivers/USB/Core/AVR8/../AVR8/../AVR8/Endpoint_AVR8.h **** 			//@{
 150:LUFA/LUFA/Drivers/USB/Core/AVR8/../AVR8/../AVR8/Endpoint_AVR8.h **** 			/** Mask for the bank mode selection for the \ref Endpoint_ConfigureEndpoint() macro. This indic
 151:LUFA/LUFA/Drivers/USB/Core/AVR8/../AVR8/../AVR8/Endpoint_AVR8.h **** 			 *  that the endpoint should have one single bank, which requires less USB FIFO memory but resul
 152:LUFA/LUFA/Drivers/USB/Core/AVR8/../AVR8/../AVR8/Endpoint_AVR8.h **** 			 *  in slower transfers as only one USB device (the AVR or the host) can access the endpoint's
 153:LUFA/LUFA/Drivers/USB/Core/AVR8/../AVR8/../AVR8/Endpoint_AVR8.h **** 			 *  bank at the one time.
 154:LUFA/LUFA/Drivers/USB/Core/AVR8/../AVR8/../AVR8/Endpoint_AVR8.h **** 			 */
 155:LUFA/LUFA/Drivers/USB/Core/AVR8/../AVR8/../AVR8/Endpoint_AVR8.h **** 			#define ENDPOINT_BANK_SINGLE                    (0 << EPBK0)
 156:LUFA/LUFA/Drivers/USB/Core/AVR8/../AVR8/../AVR8/Endpoint_AVR8.h **** 
 157:LUFA/LUFA/Drivers/USB/Core/AVR8/../AVR8/../AVR8/Endpoint_AVR8.h **** 			/** Mask for the bank mode selection for the \ref Endpoint_ConfigureEndpoint() macro. This indic
 158:LUFA/LUFA/Drivers/USB/Core/AVR8/../AVR8/../AVR8/Endpoint_AVR8.h **** 			 *  that the endpoint should have two banks, which requires more USB FIFO memory but results
 159:LUFA/LUFA/Drivers/USB/Core/AVR8/../AVR8/../AVR8/Endpoint_AVR8.h **** 			 *  in faster transfers as one USB device (the AVR or the host) can access one bank while the ot
 160:LUFA/LUFA/Drivers/USB/Core/AVR8/../AVR8/../AVR8/Endpoint_AVR8.h **** 			 *  accesses the second bank.
 161:LUFA/LUFA/Drivers/USB/Core/AVR8/../AVR8/../AVR8/Endpoint_AVR8.h **** 			 */
 162:LUFA/LUFA/Drivers/USB/Core/AVR8/../AVR8/../AVR8/Endpoint_AVR8.h **** 			#define ENDPOINT_BANK_DOUBLE                    (1 << EPBK0)
 163:LUFA/LUFA/Drivers/USB/Core/AVR8/../AVR8/../AVR8/Endpoint_AVR8.h **** 			//@}
 164:LUFA/LUFA/Drivers/USB/Core/AVR8/../AVR8/../AVR8/Endpoint_AVR8.h **** 
 165:LUFA/LUFA/Drivers/USB/Core/AVR8/../AVR8/../AVR8/Endpoint_AVR8.h **** 			#if (!defined(FIXED_CONTROL_ENDPOINT_SIZE) || defined(__DOXYGEN__))
 166:LUFA/LUFA/Drivers/USB/Core/AVR8/../AVR8/../AVR8/Endpoint_AVR8.h **** 				/** Default size of the default control endpoint's bank, until altered by the control endpoint 
 167:LUFA/LUFA/Drivers/USB/Core/AVR8/../AVR8/../AVR8/Endpoint_AVR8.h **** 				 *  value in the device descriptor. Not available if the \c FIXED_CONTROL_ENDPOINT_SIZE token i
 168:LUFA/LUFA/Drivers/USB/Core/AVR8/../AVR8/../AVR8/Endpoint_AVR8.h **** 				 */
 169:LUFA/LUFA/Drivers/USB/Core/AVR8/../AVR8/../AVR8/Endpoint_AVR8.h **** 				#define ENDPOINT_CONTROLEP_DEFAULT_SIZE     8
 170:LUFA/LUFA/Drivers/USB/Core/AVR8/../AVR8/../AVR8/Endpoint_AVR8.h **** 			#endif
 171:LUFA/LUFA/Drivers/USB/Core/AVR8/../AVR8/../AVR8/Endpoint_AVR8.h **** 
 172:LUFA/LUFA/Drivers/USB/Core/AVR8/../AVR8/../AVR8/Endpoint_AVR8.h **** 			/** Retrieves the maximum bank size in bytes of a given endpoint.
 173:LUFA/LUFA/Drivers/USB/Core/AVR8/../AVR8/../AVR8/Endpoint_AVR8.h **** 			 *
 174:LUFA/LUFA/Drivers/USB/Core/AVR8/../AVR8/../AVR8/Endpoint_AVR8.h **** 			 *  \note This macro will only work correctly on endpoint indexes that are compile-time constant
 175:LUFA/LUFA/Drivers/USB/Core/AVR8/../AVR8/../AVR8/Endpoint_AVR8.h **** 			 *        defined by the preprocessor.
 176:LUFA/LUFA/Drivers/USB/Core/AVR8/../AVR8/../AVR8/Endpoint_AVR8.h **** 			 *
 177:LUFA/LUFA/Drivers/USB/Core/AVR8/../AVR8/../AVR8/Endpoint_AVR8.h **** 			 *  \param[in] EPIndex  Endpoint number, a value between 0 and (\ref ENDPOINT_TOTAL_ENDPOINTS - 
 178:LUFA/LUFA/Drivers/USB/Core/AVR8/../AVR8/../AVR8/Endpoint_AVR8.h **** 			 */
 179:LUFA/LUFA/Drivers/USB/Core/AVR8/../AVR8/../AVR8/Endpoint_AVR8.h **** 			#define ENDPOINT_MAX_SIZE(EPIndex)              _ENDPOINT_GET_MAXSIZE(EPIndex)
 180:LUFA/LUFA/Drivers/USB/Core/AVR8/../AVR8/../AVR8/Endpoint_AVR8.h **** 
 181:LUFA/LUFA/Drivers/USB/Core/AVR8/../AVR8/../AVR8/Endpoint_AVR8.h **** 			/** Retrieves the total number of banks supported by the given endpoint.
 182:LUFA/LUFA/Drivers/USB/Core/AVR8/../AVR8/../AVR8/Endpoint_AVR8.h **** 			 *
 183:LUFA/LUFA/Drivers/USB/Core/AVR8/../AVR8/../AVR8/Endpoint_AVR8.h **** 			 *  \note This macro will only work correctly on endpoint indexes that are compile-time constant
 184:LUFA/LUFA/Drivers/USB/Core/AVR8/../AVR8/../AVR8/Endpoint_AVR8.h **** 			 *        defined by the preprocessor.
 185:LUFA/LUFA/Drivers/USB/Core/AVR8/../AVR8/../AVR8/Endpoint_AVR8.h **** 			 *
 186:LUFA/LUFA/Drivers/USB/Core/AVR8/../AVR8/../AVR8/Endpoint_AVR8.h **** 			 *  \param[in] EPIndex  Endpoint number, a value between 0 and (\ref ENDPOINT_TOTAL_ENDPOINTS - 
 187:LUFA/LUFA/Drivers/USB/Core/AVR8/../AVR8/../AVR8/Endpoint_AVR8.h **** 			 */
 188:LUFA/LUFA/Drivers/USB/Core/AVR8/../AVR8/../AVR8/Endpoint_AVR8.h **** 			#define ENDPOINT_BANKS_SUPPORTED(EPIndex)       _ENDPOINT_GET_BANKS(EPIndex)
 189:LUFA/LUFA/Drivers/USB/Core/AVR8/../AVR8/../AVR8/Endpoint_AVR8.h **** 
 190:LUFA/LUFA/Drivers/USB/Core/AVR8/../AVR8/../AVR8/Endpoint_AVR8.h **** 			#if !defined(CONTROL_ONLY_DEVICE) || defined(__DOXYGEN__)
 191:LUFA/LUFA/Drivers/USB/Core/AVR8/../AVR8/../AVR8/Endpoint_AVR8.h **** 				/** Total number of endpoints (including the default control endpoint at address 0) which may
 192:LUFA/LUFA/Drivers/USB/Core/AVR8/../AVR8/../AVR8/Endpoint_AVR8.h **** 				 *  be used in the device. Different USB AVR models support different amounts of endpoints,
 193:LUFA/LUFA/Drivers/USB/Core/AVR8/../AVR8/../AVR8/Endpoint_AVR8.h **** 				 *  this value reflects the maximum number of endpoints for the currently selected AVR model.
 194:LUFA/LUFA/Drivers/USB/Core/AVR8/../AVR8/../AVR8/Endpoint_AVR8.h **** 				 */
 195:LUFA/LUFA/Drivers/USB/Core/AVR8/../AVR8/../AVR8/Endpoint_AVR8.h **** 				#define ENDPOINT_TOTAL_ENDPOINTS            ENDPOINT_DETAILS_MAXEP
 196:LUFA/LUFA/Drivers/USB/Core/AVR8/../AVR8/../AVR8/Endpoint_AVR8.h **** 			#else
 197:LUFA/LUFA/Drivers/USB/Core/AVR8/../AVR8/../AVR8/Endpoint_AVR8.h **** 				#define ENDPOINT_TOTAL_ENDPOINTS            1
 198:LUFA/LUFA/Drivers/USB/Core/AVR8/../AVR8/../AVR8/Endpoint_AVR8.h **** 			#endif
 199:LUFA/LUFA/Drivers/USB/Core/AVR8/../AVR8/../AVR8/Endpoint_AVR8.h **** 
 200:LUFA/LUFA/Drivers/USB/Core/AVR8/../AVR8/../AVR8/Endpoint_AVR8.h **** 		/* Enums: */
 201:LUFA/LUFA/Drivers/USB/Core/AVR8/../AVR8/../AVR8/Endpoint_AVR8.h **** 			/** Enum for the possible error return codes of the \ref Endpoint_WaitUntilReady() function.
 202:LUFA/LUFA/Drivers/USB/Core/AVR8/../AVR8/../AVR8/Endpoint_AVR8.h **** 			 *
 203:LUFA/LUFA/Drivers/USB/Core/AVR8/../AVR8/../AVR8/Endpoint_AVR8.h **** 			 *  \ingroup Group_EndpointRW_AVR8
 204:LUFA/LUFA/Drivers/USB/Core/AVR8/../AVR8/../AVR8/Endpoint_AVR8.h **** 			 */
 205:LUFA/LUFA/Drivers/USB/Core/AVR8/../AVR8/../AVR8/Endpoint_AVR8.h **** 			enum Endpoint_WaitUntilReady_ErrorCodes_t
 206:LUFA/LUFA/Drivers/USB/Core/AVR8/../AVR8/../AVR8/Endpoint_AVR8.h **** 			{
 207:LUFA/LUFA/Drivers/USB/Core/AVR8/../AVR8/../AVR8/Endpoint_AVR8.h **** 				ENDPOINT_READYWAIT_NoError                 = 0, /**< Endpoint is ready for next packet, no erro
 208:LUFA/LUFA/Drivers/USB/Core/AVR8/../AVR8/../AVR8/Endpoint_AVR8.h **** 				ENDPOINT_READYWAIT_EndpointStalled         = 1, /**< The endpoint was stalled during the stream
 209:LUFA/LUFA/Drivers/USB/Core/AVR8/../AVR8/../AVR8/Endpoint_AVR8.h **** 				                                                 *   transfer by the host or device.
 210:LUFA/LUFA/Drivers/USB/Core/AVR8/../AVR8/../AVR8/Endpoint_AVR8.h **** 				                                                 */
 211:LUFA/LUFA/Drivers/USB/Core/AVR8/../AVR8/../AVR8/Endpoint_AVR8.h **** 				ENDPOINT_READYWAIT_DeviceDisconnected      = 2,	/**< Device was disconnected from the host whil
 212:LUFA/LUFA/Drivers/USB/Core/AVR8/../AVR8/../AVR8/Endpoint_AVR8.h **** 				                                                 *   waiting for the endpoint to become ready.
 213:LUFA/LUFA/Drivers/USB/Core/AVR8/../AVR8/../AVR8/Endpoint_AVR8.h **** 				                                                 */
 214:LUFA/LUFA/Drivers/USB/Core/AVR8/../AVR8/../AVR8/Endpoint_AVR8.h **** 				ENDPOINT_READYWAIT_BusSuspended            = 3, /**< The USB bus has been suspended by the host
 215:LUFA/LUFA/Drivers/USB/Core/AVR8/../AVR8/../AVR8/Endpoint_AVR8.h **** 				                                                 *   no USB endpoint traffic can occur until th
 216:LUFA/LUFA/Drivers/USB/Core/AVR8/../AVR8/../AVR8/Endpoint_AVR8.h **** 				                                                 *   has resumed.
 217:LUFA/LUFA/Drivers/USB/Core/AVR8/../AVR8/../AVR8/Endpoint_AVR8.h **** 				                                                 */
 218:LUFA/LUFA/Drivers/USB/Core/AVR8/../AVR8/../AVR8/Endpoint_AVR8.h **** 				ENDPOINT_READYWAIT_Timeout                 = 4, /**< The host failed to accept or send the next
 219:LUFA/LUFA/Drivers/USB/Core/AVR8/../AVR8/../AVR8/Endpoint_AVR8.h **** 				                                                 *   within the software timeout period set by 
 220:LUFA/LUFA/Drivers/USB/Core/AVR8/../AVR8/../AVR8/Endpoint_AVR8.h **** 				                                                 *   \ref USB_STREAM_TIMEOUT_MS macro.
 221:LUFA/LUFA/Drivers/USB/Core/AVR8/../AVR8/../AVR8/Endpoint_AVR8.h **** 				                                                 */
 222:LUFA/LUFA/Drivers/USB/Core/AVR8/../AVR8/../AVR8/Endpoint_AVR8.h **** 			};
 223:LUFA/LUFA/Drivers/USB/Core/AVR8/../AVR8/../AVR8/Endpoint_AVR8.h **** 
 224:LUFA/LUFA/Drivers/USB/Core/AVR8/../AVR8/../AVR8/Endpoint_AVR8.h **** 		/* Inline Functions: */
 225:LUFA/LUFA/Drivers/USB/Core/AVR8/../AVR8/../AVR8/Endpoint_AVR8.h **** 			/** Configures the specified endpoint number with the given endpoint type, direction, bank size
 226:LUFA/LUFA/Drivers/USB/Core/AVR8/../AVR8/../AVR8/Endpoint_AVR8.h **** 			 *  and banking mode. Once configured, the endpoint may be read from or written to, depending
 227:LUFA/LUFA/Drivers/USB/Core/AVR8/../AVR8/../AVR8/Endpoint_AVR8.h **** 			 *  on its direction.
 228:LUFA/LUFA/Drivers/USB/Core/AVR8/../AVR8/../AVR8/Endpoint_AVR8.h **** 			 *
 229:LUFA/LUFA/Drivers/USB/Core/AVR8/../AVR8/../AVR8/Endpoint_AVR8.h **** 			 *  \param[in] Number     Endpoint number to configure. This must be more than 0 and less than
 230:LUFA/LUFA/Drivers/USB/Core/AVR8/../AVR8/../AVR8/Endpoint_AVR8.h **** 			 *                        \ref ENDPOINT_TOTAL_ENDPOINTS.
 231:LUFA/LUFA/Drivers/USB/Core/AVR8/../AVR8/../AVR8/Endpoint_AVR8.h **** 			 *
 232:LUFA/LUFA/Drivers/USB/Core/AVR8/../AVR8/../AVR8/Endpoint_AVR8.h **** 			 *  \param[in] Type       Type of endpoint to configure, a \c EP_TYPE_* mask. Not all endpoint t
 233:LUFA/LUFA/Drivers/USB/Core/AVR8/../AVR8/../AVR8/Endpoint_AVR8.h **** 			 *                        are available on Low Speed USB devices - refer to the USB 2.0 specific
 234:LUFA/LUFA/Drivers/USB/Core/AVR8/../AVR8/../AVR8/Endpoint_AVR8.h **** 			 *
 235:LUFA/LUFA/Drivers/USB/Core/AVR8/../AVR8/../AVR8/Endpoint_AVR8.h **** 			 *  \param[in] Direction  Endpoint data direction, either \ref ENDPOINT_DIR_OUT or \ref ENDPOINT
 236:LUFA/LUFA/Drivers/USB/Core/AVR8/../AVR8/../AVR8/Endpoint_AVR8.h **** 			 *                        All endpoints (except Control type) are unidirectional - data may only
 237:LUFA/LUFA/Drivers/USB/Core/AVR8/../AVR8/../AVR8/Endpoint_AVR8.h **** 			 *                        from or written to the endpoint bank based on its direction, not both.
 238:LUFA/LUFA/Drivers/USB/Core/AVR8/../AVR8/../AVR8/Endpoint_AVR8.h **** 			 *
 239:LUFA/LUFA/Drivers/USB/Core/AVR8/../AVR8/../AVR8/Endpoint_AVR8.h **** 			 *  \param[in] Size       Size of the endpoint's bank, where packets are stored before they are 
 240:LUFA/LUFA/Drivers/USB/Core/AVR8/../AVR8/../AVR8/Endpoint_AVR8.h **** 			 *                        to the USB host, or after they have been received from the USB host (d
 241:LUFA/LUFA/Drivers/USB/Core/AVR8/../AVR8/../AVR8/Endpoint_AVR8.h **** 			 *                        the endpoint's data direction). The bank size must indicate the maximu
 242:LUFA/LUFA/Drivers/USB/Core/AVR8/../AVR8/../AVR8/Endpoint_AVR8.h **** 			 *                        that the endpoint can handle.
 243:LUFA/LUFA/Drivers/USB/Core/AVR8/../AVR8/../AVR8/Endpoint_AVR8.h **** 			 *
 244:LUFA/LUFA/Drivers/USB/Core/AVR8/../AVR8/../AVR8/Endpoint_AVR8.h **** 			 *  \param[in] Banks      Number of banks to use for the endpoint being configured, an \c ENDPOI
 245:LUFA/LUFA/Drivers/USB/Core/AVR8/../AVR8/../AVR8/Endpoint_AVR8.h **** 			 *                        More banks uses more USB DPRAM, but offers better performance. Isochro
 246:LUFA/LUFA/Drivers/USB/Core/AVR8/../AVR8/../AVR8/Endpoint_AVR8.h **** 			 *                        endpoints <b>must</b> have at least two banks.
 247:LUFA/LUFA/Drivers/USB/Core/AVR8/../AVR8/../AVR8/Endpoint_AVR8.h **** 			 *
 248:LUFA/LUFA/Drivers/USB/Core/AVR8/../AVR8/../AVR8/Endpoint_AVR8.h **** 			 *  \note When the \c ORDERED_EP_CONFIG compile time option is used, Endpoints <b>must</b> be co
 249:LUFA/LUFA/Drivers/USB/Core/AVR8/../AVR8/../AVR8/Endpoint_AVR8.h **** 			 *        ascending order, or bank corruption will occur.
 250:LUFA/LUFA/Drivers/USB/Core/AVR8/../AVR8/../AVR8/Endpoint_AVR8.h **** 			 *        \n\n
 251:LUFA/LUFA/Drivers/USB/Core/AVR8/../AVR8/../AVR8/Endpoint_AVR8.h **** 			 *
 252:LUFA/LUFA/Drivers/USB/Core/AVR8/../AVR8/../AVR8/Endpoint_AVR8.h **** 			 *  \note Different endpoints may have different maximum packet sizes based on the endpoint's in
 253:LUFA/LUFA/Drivers/USB/Core/AVR8/../AVR8/../AVR8/Endpoint_AVR8.h **** 			 *        the chosen microcontroller model's datasheet to determine the maximum bank size for ea
 254:LUFA/LUFA/Drivers/USB/Core/AVR8/../AVR8/../AVR8/Endpoint_AVR8.h **** 			 *        \n\n
 255:LUFA/LUFA/Drivers/USB/Core/AVR8/../AVR8/../AVR8/Endpoint_AVR8.h **** 			 *
 256:LUFA/LUFA/Drivers/USB/Core/AVR8/../AVR8/../AVR8/Endpoint_AVR8.h **** 			 *  \note The default control endpoint should not be manually configured by the user application
 257:LUFA/LUFA/Drivers/USB/Core/AVR8/../AVR8/../AVR8/Endpoint_AVR8.h **** 			 *        it is automatically configured by the library internally.
 258:LUFA/LUFA/Drivers/USB/Core/AVR8/../AVR8/../AVR8/Endpoint_AVR8.h **** 			 *        \n\n
 259:LUFA/LUFA/Drivers/USB/Core/AVR8/../AVR8/../AVR8/Endpoint_AVR8.h **** 			 *
 260:LUFA/LUFA/Drivers/USB/Core/AVR8/../AVR8/../AVR8/Endpoint_AVR8.h **** 			 *  \note This routine will automatically select the specified endpoint upon success. Upon failu
 261:LUFA/LUFA/Drivers/USB/Core/AVR8/../AVR8/../AVR8/Endpoint_AVR8.h **** 			 *        which failed to reconfigure correctly will be selected.
 262:LUFA/LUFA/Drivers/USB/Core/AVR8/../AVR8/../AVR8/Endpoint_AVR8.h **** 			 *
 263:LUFA/LUFA/Drivers/USB/Core/AVR8/../AVR8/../AVR8/Endpoint_AVR8.h **** 			 *  \return Boolean \c true if the configuration succeeded, \c false otherwise.
 264:LUFA/LUFA/Drivers/USB/Core/AVR8/../AVR8/../AVR8/Endpoint_AVR8.h **** 			 */
 265:LUFA/LUFA/Drivers/USB/Core/AVR8/../AVR8/../AVR8/Endpoint_AVR8.h **** 			static inline bool Endpoint_ConfigureEndpoint(const uint8_t Number,
 266:LUFA/LUFA/Drivers/USB/Core/AVR8/../AVR8/../AVR8/Endpoint_AVR8.h **** 			                                              const uint8_t Type,
 267:LUFA/LUFA/Drivers/USB/Core/AVR8/../AVR8/../AVR8/Endpoint_AVR8.h **** 			                                              const uint8_t Direction,
 268:LUFA/LUFA/Drivers/USB/Core/AVR8/../AVR8/../AVR8/Endpoint_AVR8.h **** 			                                              const uint16_t Size,
 269:LUFA/LUFA/Drivers/USB/Core/AVR8/../AVR8/../AVR8/Endpoint_AVR8.h **** 			                                              const uint8_t Banks) ATTR_ALWAYS_INLINE;
 270:LUFA/LUFA/Drivers/USB/Core/AVR8/../AVR8/../AVR8/Endpoint_AVR8.h **** 			static inline bool Endpoint_ConfigureEndpoint(const uint8_t Number,
 271:LUFA/LUFA/Drivers/USB/Core/AVR8/../AVR8/../AVR8/Endpoint_AVR8.h **** 			                                              const uint8_t Type,
 272:LUFA/LUFA/Drivers/USB/Core/AVR8/../AVR8/../AVR8/Endpoint_AVR8.h **** 			                                              const uint8_t Direction,
 273:LUFA/LUFA/Drivers/USB/Core/AVR8/../AVR8/../AVR8/Endpoint_AVR8.h **** 			                                              const uint16_t Size,
 274:LUFA/LUFA/Drivers/USB/Core/AVR8/../AVR8/../AVR8/Endpoint_AVR8.h **** 			                                              const uint8_t Banks)
 275:LUFA/LUFA/Drivers/USB/Core/AVR8/../AVR8/../AVR8/Endpoint_AVR8.h **** 			{
 276:LUFA/LUFA/Drivers/USB/Core/AVR8/../AVR8/../AVR8/Endpoint_AVR8.h **** 				return Endpoint_ConfigureEndpoint_Prv(Number, ((Type << EPTYPE0) | (Direction ? (1 << EPDIR) : 
 277:LUFA/LUFA/Drivers/USB/Core/AVR8/../AVR8/../AVR8/Endpoint_AVR8.h **** 				                                      ((1 << ALLOC) | Banks | Endpoint_BytesToEPSizeMask(Size))
 278:LUFA/LUFA/Drivers/USB/Core/AVR8/../AVR8/../AVR8/Endpoint_AVR8.h **** 			}
 279:LUFA/LUFA/Drivers/USB/Core/AVR8/../AVR8/../AVR8/Endpoint_AVR8.h **** 
 280:LUFA/LUFA/Drivers/USB/Core/AVR8/../AVR8/../AVR8/Endpoint_AVR8.h **** 			/** Indicates the number of bytes currently stored in the current endpoint's selected bank.
 281:LUFA/LUFA/Drivers/USB/Core/AVR8/../AVR8/../AVR8/Endpoint_AVR8.h **** 			 *
 282:LUFA/LUFA/Drivers/USB/Core/AVR8/../AVR8/../AVR8/Endpoint_AVR8.h **** 			 *  \note The return width of this function may differ, depending on the maximum endpoint bank s
 283:LUFA/LUFA/Drivers/USB/Core/AVR8/../AVR8/../AVR8/Endpoint_AVR8.h **** 			 *        of the selected AVR model.
 284:LUFA/LUFA/Drivers/USB/Core/AVR8/../AVR8/../AVR8/Endpoint_AVR8.h **** 			 *
 285:LUFA/LUFA/Drivers/USB/Core/AVR8/../AVR8/../AVR8/Endpoint_AVR8.h **** 			 *  \ingroup Group_EndpointRW_AVR8
 286:LUFA/LUFA/Drivers/USB/Core/AVR8/../AVR8/../AVR8/Endpoint_AVR8.h **** 			 *
 287:LUFA/LUFA/Drivers/USB/Core/AVR8/../AVR8/../AVR8/Endpoint_AVR8.h **** 			 *  \return Total number of bytes in the currently selected Endpoint's FIFO buffer.
 288:LUFA/LUFA/Drivers/USB/Core/AVR8/../AVR8/../AVR8/Endpoint_AVR8.h **** 			 */
 289:LUFA/LUFA/Drivers/USB/Core/AVR8/../AVR8/../AVR8/Endpoint_AVR8.h **** 			static inline uint16_t Endpoint_BytesInEndpoint(void) ATTR_WARN_UNUSED_RESULT ATTR_ALWAYS_INLINE
 290:LUFA/LUFA/Drivers/USB/Core/AVR8/../AVR8/../AVR8/Endpoint_AVR8.h **** 			static inline uint16_t Endpoint_BytesInEndpoint(void)
 291:LUFA/LUFA/Drivers/USB/Core/AVR8/../AVR8/../AVR8/Endpoint_AVR8.h **** 			{
 292:LUFA/LUFA/Drivers/USB/Core/AVR8/../AVR8/../AVR8/Endpoint_AVR8.h **** 				#if defined(USB_SERIES_6_AVR) || defined(USB_SERIES_7_AVR)
 293:LUFA/LUFA/Drivers/USB/Core/AVR8/../AVR8/../AVR8/Endpoint_AVR8.h **** 					return UEBCX;
 294:LUFA/LUFA/Drivers/USB/Core/AVR8/../AVR8/../AVR8/Endpoint_AVR8.h **** 				#elif defined(USB_SERIES_4_AVR)
 295:LUFA/LUFA/Drivers/USB/Core/AVR8/../AVR8/../AVR8/Endpoint_AVR8.h **** 					return (((uint16_t)UEBCHX << 8) | UEBCLX);
 296:LUFA/LUFA/Drivers/USB/Core/AVR8/../AVR8/../AVR8/Endpoint_AVR8.h **** 				#elif defined(USB_SERIES_2_AVR)
 297:LUFA/LUFA/Drivers/USB/Core/AVR8/../AVR8/../AVR8/Endpoint_AVR8.h **** 					return UEBCLX;
 298:LUFA/LUFA/Drivers/USB/Core/AVR8/../AVR8/../AVR8/Endpoint_AVR8.h **** 				#endif
 299:LUFA/LUFA/Drivers/USB/Core/AVR8/../AVR8/../AVR8/Endpoint_AVR8.h **** 			}
 300:LUFA/LUFA/Drivers/USB/Core/AVR8/../AVR8/../AVR8/Endpoint_AVR8.h **** 
 301:LUFA/LUFA/Drivers/USB/Core/AVR8/../AVR8/../AVR8/Endpoint_AVR8.h **** 			/** Get the endpoint address of the currently selected endpoint. This is typically used to save
 302:LUFA/LUFA/Drivers/USB/Core/AVR8/../AVR8/../AVR8/Endpoint_AVR8.h **** 			 *  the currently selected endpoint number so that it can be restored after another endpoint has
 303:LUFA/LUFA/Drivers/USB/Core/AVR8/../AVR8/../AVR8/Endpoint_AVR8.h **** 			 *  been manipulated.
 304:LUFA/LUFA/Drivers/USB/Core/AVR8/../AVR8/../AVR8/Endpoint_AVR8.h **** 			 *
 305:LUFA/LUFA/Drivers/USB/Core/AVR8/../AVR8/../AVR8/Endpoint_AVR8.h **** 			 *  \return Index of the currently selected endpoint.
 306:LUFA/LUFA/Drivers/USB/Core/AVR8/../AVR8/../AVR8/Endpoint_AVR8.h **** 			 */
 307:LUFA/LUFA/Drivers/USB/Core/AVR8/../AVR8/../AVR8/Endpoint_AVR8.h **** 			static inline uint8_t Endpoint_GetCurrentEndpoint(void) ATTR_WARN_UNUSED_RESULT ATTR_ALWAYS_INLI
 308:LUFA/LUFA/Drivers/USB/Core/AVR8/../AVR8/../AVR8/Endpoint_AVR8.h **** 			static inline uint8_t Endpoint_GetCurrentEndpoint(void)
 309:LUFA/LUFA/Drivers/USB/Core/AVR8/../AVR8/../AVR8/Endpoint_AVR8.h **** 			{
 310:LUFA/LUFA/Drivers/USB/Core/AVR8/../AVR8/../AVR8/Endpoint_AVR8.h **** 				#if !defined(CONTROL_ONLY_DEVICE)
 311:LUFA/LUFA/Drivers/USB/Core/AVR8/../AVR8/../AVR8/Endpoint_AVR8.h **** 					return (UENUM & ENDPOINT_EPNUM_MASK);
 312:LUFA/LUFA/Drivers/USB/Core/AVR8/../AVR8/../AVR8/Endpoint_AVR8.h **** 				#else
 313:LUFA/LUFA/Drivers/USB/Core/AVR8/../AVR8/../AVR8/Endpoint_AVR8.h **** 					return ENDPOINT_CONTROLEP;
 314:LUFA/LUFA/Drivers/USB/Core/AVR8/../AVR8/../AVR8/Endpoint_AVR8.h **** 				#endif
 315:LUFA/LUFA/Drivers/USB/Core/AVR8/../AVR8/../AVR8/Endpoint_AVR8.h **** 			}
 316:LUFA/LUFA/Drivers/USB/Core/AVR8/../AVR8/../AVR8/Endpoint_AVR8.h **** 
 317:LUFA/LUFA/Drivers/USB/Core/AVR8/../AVR8/../AVR8/Endpoint_AVR8.h **** 			/** Selects the given endpoint number. If the address from the device descriptors is used, the
 318:LUFA/LUFA/Drivers/USB/Core/AVR8/../AVR8/../AVR8/Endpoint_AVR8.h **** 			 *  value should be masked with the \ref ENDPOINT_EPNUM_MASK constant to extract only the endpoi
 319:LUFA/LUFA/Drivers/USB/Core/AVR8/../AVR8/../AVR8/Endpoint_AVR8.h **** 			 *  number (and discarding the endpoint direction bit).
 320:LUFA/LUFA/Drivers/USB/Core/AVR8/../AVR8/../AVR8/Endpoint_AVR8.h **** 			 *
 321:LUFA/LUFA/Drivers/USB/Core/AVR8/../AVR8/../AVR8/Endpoint_AVR8.h **** 			 *  Any endpoint operations which do not require the endpoint number to be indicated will operat
 322:LUFA/LUFA/Drivers/USB/Core/AVR8/../AVR8/../AVR8/Endpoint_AVR8.h **** 			 *  the currently selected endpoint.
 323:LUFA/LUFA/Drivers/USB/Core/AVR8/../AVR8/../AVR8/Endpoint_AVR8.h **** 			 *
 324:LUFA/LUFA/Drivers/USB/Core/AVR8/../AVR8/../AVR8/Endpoint_AVR8.h **** 			 *  \param[in] EndpointNumber Endpoint number to select.
 325:LUFA/LUFA/Drivers/USB/Core/AVR8/../AVR8/../AVR8/Endpoint_AVR8.h **** 			 */
 326:LUFA/LUFA/Drivers/USB/Core/AVR8/../AVR8/../AVR8/Endpoint_AVR8.h **** 			static inline void Endpoint_SelectEndpoint(const uint8_t EndpointNumber) ATTR_ALWAYS_INLINE;
 327:LUFA/LUFA/Drivers/USB/Core/AVR8/../AVR8/../AVR8/Endpoint_AVR8.h **** 			static inline void Endpoint_SelectEndpoint(const uint8_t EndpointNumber)
 328:LUFA/LUFA/Drivers/USB/Core/AVR8/../AVR8/../AVR8/Endpoint_AVR8.h **** 			{
 329:LUFA/LUFA/Drivers/USB/Core/AVR8/../AVR8/../AVR8/Endpoint_AVR8.h **** 				#if !defined(CONTROL_ONLY_DEVICE)
 330:LUFA/LUFA/Drivers/USB/Core/AVR8/../AVR8/../AVR8/Endpoint_AVR8.h **** 					UENUM = EndpointNumber;
 331:LUFA/LUFA/Drivers/USB/Core/AVR8/../AVR8/../AVR8/Endpoint_AVR8.h **** 				#endif
 332:LUFA/LUFA/Drivers/USB/Core/AVR8/../AVR8/../AVR8/Endpoint_AVR8.h **** 			}
 333:LUFA/LUFA/Drivers/USB/Core/AVR8/../AVR8/../AVR8/Endpoint_AVR8.h **** 
 334:LUFA/LUFA/Drivers/USB/Core/AVR8/../AVR8/../AVR8/Endpoint_AVR8.h **** 			/** Resets the endpoint bank FIFO. This clears all the endpoint banks and resets the USB control
 335:LUFA/LUFA/Drivers/USB/Core/AVR8/../AVR8/../AVR8/Endpoint_AVR8.h **** 			 *  data In and Out pointers to the bank's contents.
 336:LUFA/LUFA/Drivers/USB/Core/AVR8/../AVR8/../AVR8/Endpoint_AVR8.h **** 			 *
 337:LUFA/LUFA/Drivers/USB/Core/AVR8/../AVR8/../AVR8/Endpoint_AVR8.h **** 			 *  \param[in] EndpointNumber Endpoint number whose FIFO buffers are to be reset.
 338:LUFA/LUFA/Drivers/USB/Core/AVR8/../AVR8/../AVR8/Endpoint_AVR8.h **** 			 */
 339:LUFA/LUFA/Drivers/USB/Core/AVR8/../AVR8/../AVR8/Endpoint_AVR8.h **** 			static inline void Endpoint_ResetEndpoint(const uint8_t EndpointNumber) ATTR_ALWAYS_INLINE;
 340:LUFA/LUFA/Drivers/USB/Core/AVR8/../AVR8/../AVR8/Endpoint_AVR8.h **** 			static inline void Endpoint_ResetEndpoint(const uint8_t EndpointNumber)
 341:LUFA/LUFA/Drivers/USB/Core/AVR8/../AVR8/../AVR8/Endpoint_AVR8.h **** 			{
 342:LUFA/LUFA/Drivers/USB/Core/AVR8/../AVR8/../AVR8/Endpoint_AVR8.h **** 				UERST = (1 << EndpointNumber);
 343:LUFA/LUFA/Drivers/USB/Core/AVR8/../AVR8/../AVR8/Endpoint_AVR8.h **** 				UERST = 0;
 344:LUFA/LUFA/Drivers/USB/Core/AVR8/../AVR8/../AVR8/Endpoint_AVR8.h **** 			}
 345:LUFA/LUFA/Drivers/USB/Core/AVR8/../AVR8/../AVR8/Endpoint_AVR8.h **** 
 346:LUFA/LUFA/Drivers/USB/Core/AVR8/../AVR8/../AVR8/Endpoint_AVR8.h **** 			/** Enables the currently selected endpoint so that data can be sent and received through it to
 347:LUFA/LUFA/Drivers/USB/Core/AVR8/../AVR8/../AVR8/Endpoint_AVR8.h **** 			 *  and from a host.
 348:LUFA/LUFA/Drivers/USB/Core/AVR8/../AVR8/../AVR8/Endpoint_AVR8.h **** 			 *
 349:LUFA/LUFA/Drivers/USB/Core/AVR8/../AVR8/../AVR8/Endpoint_AVR8.h **** 			 *  \note Endpoints must first be configured properly via \ref Endpoint_ConfigureEndpoint().
 350:LUFA/LUFA/Drivers/USB/Core/AVR8/../AVR8/../AVR8/Endpoint_AVR8.h **** 			 */
 351:LUFA/LUFA/Drivers/USB/Core/AVR8/../AVR8/../AVR8/Endpoint_AVR8.h **** 			static inline void Endpoint_EnableEndpoint(void) ATTR_ALWAYS_INLINE;
 352:LUFA/LUFA/Drivers/USB/Core/AVR8/../AVR8/../AVR8/Endpoint_AVR8.h **** 			static inline void Endpoint_EnableEndpoint(void)
 353:LUFA/LUFA/Drivers/USB/Core/AVR8/../AVR8/../AVR8/Endpoint_AVR8.h **** 			{
 354:LUFA/LUFA/Drivers/USB/Core/AVR8/../AVR8/../AVR8/Endpoint_AVR8.h **** 				UECONX |= (1 << EPEN);
 355:LUFA/LUFA/Drivers/USB/Core/AVR8/../AVR8/../AVR8/Endpoint_AVR8.h **** 			}
 356:LUFA/LUFA/Drivers/USB/Core/AVR8/../AVR8/../AVR8/Endpoint_AVR8.h **** 
 357:LUFA/LUFA/Drivers/USB/Core/AVR8/../AVR8/../AVR8/Endpoint_AVR8.h **** 			/** Disables the currently selected endpoint so that data cannot be sent and received through it
 358:LUFA/LUFA/Drivers/USB/Core/AVR8/../AVR8/../AVR8/Endpoint_AVR8.h **** 			 *  to and from a host.
 359:LUFA/LUFA/Drivers/USB/Core/AVR8/../AVR8/../AVR8/Endpoint_AVR8.h **** 			 */
 360:LUFA/LUFA/Drivers/USB/Core/AVR8/../AVR8/../AVR8/Endpoint_AVR8.h **** 			static inline void Endpoint_DisableEndpoint(void) ATTR_ALWAYS_INLINE;
 361:LUFA/LUFA/Drivers/USB/Core/AVR8/../AVR8/../AVR8/Endpoint_AVR8.h **** 			static inline void Endpoint_DisableEndpoint(void)
 362:LUFA/LUFA/Drivers/USB/Core/AVR8/../AVR8/../AVR8/Endpoint_AVR8.h **** 			{
 363:LUFA/LUFA/Drivers/USB/Core/AVR8/../AVR8/../AVR8/Endpoint_AVR8.h **** 				UECONX &= ~(1 << EPEN);
 364:LUFA/LUFA/Drivers/USB/Core/AVR8/../AVR8/../AVR8/Endpoint_AVR8.h **** 			}
 365:LUFA/LUFA/Drivers/USB/Core/AVR8/../AVR8/../AVR8/Endpoint_AVR8.h **** 
 366:LUFA/LUFA/Drivers/USB/Core/AVR8/../AVR8/../AVR8/Endpoint_AVR8.h **** 			/** Determines if the currently selected endpoint is enabled, but not necessarily configured.
 367:LUFA/LUFA/Drivers/USB/Core/AVR8/../AVR8/../AVR8/Endpoint_AVR8.h **** 			 *
 368:LUFA/LUFA/Drivers/USB/Core/AVR8/../AVR8/../AVR8/Endpoint_AVR8.h **** 			 * \return Boolean \c true if the currently selected endpoint is enabled, \c false otherwise.
 369:LUFA/LUFA/Drivers/USB/Core/AVR8/../AVR8/../AVR8/Endpoint_AVR8.h **** 			 */
 370:LUFA/LUFA/Drivers/USB/Core/AVR8/../AVR8/../AVR8/Endpoint_AVR8.h **** 			static inline bool Endpoint_IsEnabled(void) ATTR_WARN_UNUSED_RESULT ATTR_ALWAYS_INLINE;
 371:LUFA/LUFA/Drivers/USB/Core/AVR8/../AVR8/../AVR8/Endpoint_AVR8.h **** 			static inline bool Endpoint_IsEnabled(void)
 372:LUFA/LUFA/Drivers/USB/Core/AVR8/../AVR8/../AVR8/Endpoint_AVR8.h **** 			{
 373:LUFA/LUFA/Drivers/USB/Core/AVR8/../AVR8/../AVR8/Endpoint_AVR8.h **** 				return ((UECONX & (1 << EPEN)) ? true : false);
 374:LUFA/LUFA/Drivers/USB/Core/AVR8/../AVR8/../AVR8/Endpoint_AVR8.h **** 			}
 375:LUFA/LUFA/Drivers/USB/Core/AVR8/../AVR8/../AVR8/Endpoint_AVR8.h **** 
 376:LUFA/LUFA/Drivers/USB/Core/AVR8/../AVR8/../AVR8/Endpoint_AVR8.h **** 			/** Retrieves the number of busy banks in the currently selected endpoint, which have been queue
 377:LUFA/LUFA/Drivers/USB/Core/AVR8/../AVR8/../AVR8/Endpoint_AVR8.h **** 			 *  transmission via the \ref Endpoint_ClearIN() command, or are awaiting acknowledgement via th
 378:LUFA/LUFA/Drivers/USB/Core/AVR8/../AVR8/../AVR8/Endpoint_AVR8.h **** 			 *  \ref Endpoint_ClearOUT() command.
 379:LUFA/LUFA/Drivers/USB/Core/AVR8/../AVR8/../AVR8/Endpoint_AVR8.h **** 			 *
 380:LUFA/LUFA/Drivers/USB/Core/AVR8/../AVR8/../AVR8/Endpoint_AVR8.h **** 			 *  \ingroup Group_EndpointPacketManagement_AVR8
 381:LUFA/LUFA/Drivers/USB/Core/AVR8/../AVR8/../AVR8/Endpoint_AVR8.h **** 			 *
 382:LUFA/LUFA/Drivers/USB/Core/AVR8/../AVR8/../AVR8/Endpoint_AVR8.h **** 			 *  \return Total number of busy banks in the selected endpoint.
 383:LUFA/LUFA/Drivers/USB/Core/AVR8/../AVR8/../AVR8/Endpoint_AVR8.h **** 			 */
 384:LUFA/LUFA/Drivers/USB/Core/AVR8/../AVR8/../AVR8/Endpoint_AVR8.h **** 			static inline uint8_t Endpoint_GetBusyBanks(void) ATTR_ALWAYS_INLINE ATTR_WARN_UNUSED_RESULT;
 385:LUFA/LUFA/Drivers/USB/Core/AVR8/../AVR8/../AVR8/Endpoint_AVR8.h **** 			static inline uint8_t Endpoint_GetBusyBanks(void)
 386:LUFA/LUFA/Drivers/USB/Core/AVR8/../AVR8/../AVR8/Endpoint_AVR8.h **** 			{
 387:LUFA/LUFA/Drivers/USB/Core/AVR8/../AVR8/../AVR8/Endpoint_AVR8.h **** 				return (UESTA0X & (0x03 << NBUSYBK0));
 388:LUFA/LUFA/Drivers/USB/Core/AVR8/../AVR8/../AVR8/Endpoint_AVR8.h **** 			}
 389:LUFA/LUFA/Drivers/USB/Core/AVR8/../AVR8/../AVR8/Endpoint_AVR8.h **** 
 390:LUFA/LUFA/Drivers/USB/Core/AVR8/../AVR8/../AVR8/Endpoint_AVR8.h **** 			/** Aborts all pending IN transactions on the currently selected endpoint, once the bank
 391:LUFA/LUFA/Drivers/USB/Core/AVR8/../AVR8/../AVR8/Endpoint_AVR8.h **** 			 *  has been queued for transmission to the host via \ref Endpoint_ClearIN(). This function
 392:LUFA/LUFA/Drivers/USB/Core/AVR8/../AVR8/../AVR8/Endpoint_AVR8.h **** 			 *  will terminate all queued transactions, resetting the endpoint banks ready for a new
 393:LUFA/LUFA/Drivers/USB/Core/AVR8/../AVR8/../AVR8/Endpoint_AVR8.h **** 			 *  packet.
 394:LUFA/LUFA/Drivers/USB/Core/AVR8/../AVR8/../AVR8/Endpoint_AVR8.h **** 			 *
 395:LUFA/LUFA/Drivers/USB/Core/AVR8/../AVR8/../AVR8/Endpoint_AVR8.h **** 			 *  \ingroup Group_EndpointPacketManagement_AVR8
 396:LUFA/LUFA/Drivers/USB/Core/AVR8/../AVR8/../AVR8/Endpoint_AVR8.h **** 			 */
 397:LUFA/LUFA/Drivers/USB/Core/AVR8/../AVR8/../AVR8/Endpoint_AVR8.h **** 			static inline void Endpoint_AbortPendingIN(void)
 398:LUFA/LUFA/Drivers/USB/Core/AVR8/../AVR8/../AVR8/Endpoint_AVR8.h **** 			{
 399:LUFA/LUFA/Drivers/USB/Core/AVR8/../AVR8/../AVR8/Endpoint_AVR8.h **** 				while (Endpoint_GetBusyBanks() != 0)
 400:LUFA/LUFA/Drivers/USB/Core/AVR8/../AVR8/../AVR8/Endpoint_AVR8.h **** 				{
 401:LUFA/LUFA/Drivers/USB/Core/AVR8/../AVR8/../AVR8/Endpoint_AVR8.h **** 					UEINTX |= (1 << RXOUTI);
 402:LUFA/LUFA/Drivers/USB/Core/AVR8/../AVR8/../AVR8/Endpoint_AVR8.h **** 					while (UEINTX & (1 << RXOUTI));
 403:LUFA/LUFA/Drivers/USB/Core/AVR8/../AVR8/../AVR8/Endpoint_AVR8.h **** 				}
 404:LUFA/LUFA/Drivers/USB/Core/AVR8/../AVR8/../AVR8/Endpoint_AVR8.h **** 			}
 405:LUFA/LUFA/Drivers/USB/Core/AVR8/../AVR8/../AVR8/Endpoint_AVR8.h **** 
 406:LUFA/LUFA/Drivers/USB/Core/AVR8/../AVR8/../AVR8/Endpoint_AVR8.h **** 			/** Determines if the currently selected endpoint may be read from (if data is waiting in the en
 407:LUFA/LUFA/Drivers/USB/Core/AVR8/../AVR8/../AVR8/Endpoint_AVR8.h **** 			 *  bank and the endpoint is an OUT direction, or if the bank is not yet full if the endpoint is
 408:LUFA/LUFA/Drivers/USB/Core/AVR8/../AVR8/../AVR8/Endpoint_AVR8.h **** 			 *  direction). This function will return false if an error has occurred in the endpoint, if the
 409:LUFA/LUFA/Drivers/USB/Core/AVR8/../AVR8/../AVR8/Endpoint_AVR8.h **** 			 *  is an OUT direction and no packet (or an empty packet) has been received, or if the endpoint
 410:LUFA/LUFA/Drivers/USB/Core/AVR8/../AVR8/../AVR8/Endpoint_AVR8.h **** 			 *  direction and the endpoint bank is full.
 411:LUFA/LUFA/Drivers/USB/Core/AVR8/../AVR8/../AVR8/Endpoint_AVR8.h **** 			 *
 412:LUFA/LUFA/Drivers/USB/Core/AVR8/../AVR8/../AVR8/Endpoint_AVR8.h **** 			 *  \ingroup Group_EndpointPacketManagement_AVR8
 413:LUFA/LUFA/Drivers/USB/Core/AVR8/../AVR8/../AVR8/Endpoint_AVR8.h **** 			 *
 414:LUFA/LUFA/Drivers/USB/Core/AVR8/../AVR8/../AVR8/Endpoint_AVR8.h **** 			 *  \return Boolean \c true if the currently selected endpoint may be read from or written to, d
 415:LUFA/LUFA/Drivers/USB/Core/AVR8/../AVR8/../AVR8/Endpoint_AVR8.h **** 			 *          on its direction.
 416:LUFA/LUFA/Drivers/USB/Core/AVR8/../AVR8/../AVR8/Endpoint_AVR8.h **** 			 */
 417:LUFA/LUFA/Drivers/USB/Core/AVR8/../AVR8/../AVR8/Endpoint_AVR8.h **** 			static inline bool Endpoint_IsReadWriteAllowed(void) ATTR_WARN_UNUSED_RESULT ATTR_ALWAYS_INLINE;
 418:LUFA/LUFA/Drivers/USB/Core/AVR8/../AVR8/../AVR8/Endpoint_AVR8.h **** 			static inline bool Endpoint_IsReadWriteAllowed(void)
  93               		.loc 2 418 23 view .LVU15
  94               	.LBB257:
 419:LUFA/LUFA/Drivers/USB/Core/AVR8/../AVR8/../AVR8/Endpoint_AVR8.h **** 			{
 420:LUFA/LUFA/Drivers/USB/Core/AVR8/../AVR8/../AVR8/Endpoint_AVR8.h **** 				return ((UEINTX & (1 << RWAL)) ? true : false);
  95               		.loc 2 420 5 view .LVU16
  96               		.loc 2 420 14 is_stmt 0 view .LVU17
  97 0034 8091 E800 		lds r24,232
  98               	.LBE257:
  99               	.LBE256:
 100               		.loc 1 53 6 view .LVU18
 101 0038 85FD      		sbrc r24,5
 102 003a 00C0      		rjmp .L5
  54:LUFA/LUFA/Drivers/USB/Core/AVR8/EndpointStream_AVR8.c **** 		{
  55:LUFA/LUFA/Drivers/USB/Core/AVR8/EndpointStream_AVR8.c **** 			Endpoint_ClearOUT();
 103               		.loc 1 55 4 is_stmt 1 view .LVU19
 104               	.LBB258:
 105               	.LBI258:
 421:LUFA/LUFA/Drivers/USB/Core/AVR8/../AVR8/../AVR8/Endpoint_AVR8.h **** 			}
 422:LUFA/LUFA/Drivers/USB/Core/AVR8/../AVR8/../AVR8/Endpoint_AVR8.h **** 
 423:LUFA/LUFA/Drivers/USB/Core/AVR8/../AVR8/../AVR8/Endpoint_AVR8.h **** 			/** Determines if the currently selected endpoint is configured.
 424:LUFA/LUFA/Drivers/USB/Core/AVR8/../AVR8/../AVR8/Endpoint_AVR8.h **** 			 *
 425:LUFA/LUFA/Drivers/USB/Core/AVR8/../AVR8/../AVR8/Endpoint_AVR8.h **** 			 *  \return Boolean \c true if the currently selected endpoint has been configured, \c false oth
 426:LUFA/LUFA/Drivers/USB/Core/AVR8/../AVR8/../AVR8/Endpoint_AVR8.h **** 			 */
 427:LUFA/LUFA/Drivers/USB/Core/AVR8/../AVR8/../AVR8/Endpoint_AVR8.h **** 			static inline bool Endpoint_IsConfigured(void) ATTR_WARN_UNUSED_RESULT ATTR_ALWAYS_INLINE;
 428:LUFA/LUFA/Drivers/USB/Core/AVR8/../AVR8/../AVR8/Endpoint_AVR8.h **** 			static inline bool Endpoint_IsConfigured(void)
 429:LUFA/LUFA/Drivers/USB/Core/AVR8/../AVR8/../AVR8/Endpoint_AVR8.h **** 			{
 430:LUFA/LUFA/Drivers/USB/Core/AVR8/../AVR8/../AVR8/Endpoint_AVR8.h **** 				return ((UESTA0X & (1 << CFGOK)) ? true : false);
 431:LUFA/LUFA/Drivers/USB/Core/AVR8/../AVR8/../AVR8/Endpoint_AVR8.h **** 			}
 432:LUFA/LUFA/Drivers/USB/Core/AVR8/../AVR8/../AVR8/Endpoint_AVR8.h **** 
 433:LUFA/LUFA/Drivers/USB/Core/AVR8/../AVR8/../AVR8/Endpoint_AVR8.h **** 			/** Returns a mask indicating which INTERRUPT type endpoints have interrupted - i.e. their
 434:LUFA/LUFA/Drivers/USB/Core/AVR8/../AVR8/../AVR8/Endpoint_AVR8.h **** 			 *  interrupt duration has elapsed. Which endpoints have interrupted can be determined by
 435:LUFA/LUFA/Drivers/USB/Core/AVR8/../AVR8/../AVR8/Endpoint_AVR8.h **** 			 *  masking the return value against <tt>(1 << <i>{Endpoint Number}</i>)</tt>.
 436:LUFA/LUFA/Drivers/USB/Core/AVR8/../AVR8/../AVR8/Endpoint_AVR8.h **** 			 *
 437:LUFA/LUFA/Drivers/USB/Core/AVR8/../AVR8/../AVR8/Endpoint_AVR8.h **** 			 *  \return Mask whose bits indicate which endpoints have interrupted.
 438:LUFA/LUFA/Drivers/USB/Core/AVR8/../AVR8/../AVR8/Endpoint_AVR8.h **** 			 */
 439:LUFA/LUFA/Drivers/USB/Core/AVR8/../AVR8/../AVR8/Endpoint_AVR8.h **** 			static inline uint8_t Endpoint_GetEndpointInterrupts(void) ATTR_WARN_UNUSED_RESULT ATTR_ALWAYS_I
 440:LUFA/LUFA/Drivers/USB/Core/AVR8/../AVR8/../AVR8/Endpoint_AVR8.h **** 			static inline uint8_t Endpoint_GetEndpointInterrupts(void)
 441:LUFA/LUFA/Drivers/USB/Core/AVR8/../AVR8/../AVR8/Endpoint_AVR8.h **** 			{
 442:LUFA/LUFA/Drivers/USB/Core/AVR8/../AVR8/../AVR8/Endpoint_AVR8.h **** 				return UEINT;
 443:LUFA/LUFA/Drivers/USB/Core/AVR8/../AVR8/../AVR8/Endpoint_AVR8.h **** 			}
 444:LUFA/LUFA/Drivers/USB/Core/AVR8/../AVR8/../AVR8/Endpoint_AVR8.h **** 
 445:LUFA/LUFA/Drivers/USB/Core/AVR8/../AVR8/../AVR8/Endpoint_AVR8.h **** 			/** Determines if the specified endpoint number has interrupted (valid only for INTERRUPT type
 446:LUFA/LUFA/Drivers/USB/Core/AVR8/../AVR8/../AVR8/Endpoint_AVR8.h **** 			 *  endpoints).
 447:LUFA/LUFA/Drivers/USB/Core/AVR8/../AVR8/../AVR8/Endpoint_AVR8.h **** 			 *
 448:LUFA/LUFA/Drivers/USB/Core/AVR8/../AVR8/../AVR8/Endpoint_AVR8.h **** 			 *  \param[in] EndpointNumber  Index of the endpoint whose interrupt flag should be tested.
 449:LUFA/LUFA/Drivers/USB/Core/AVR8/../AVR8/../AVR8/Endpoint_AVR8.h **** 			 *
 450:LUFA/LUFA/Drivers/USB/Core/AVR8/../AVR8/../AVR8/Endpoint_AVR8.h **** 			 *  \return Boolean \c true if the specified endpoint has interrupted, \c false otherwise.
 451:LUFA/LUFA/Drivers/USB/Core/AVR8/../AVR8/../AVR8/Endpoint_AVR8.h **** 			 */
 452:LUFA/LUFA/Drivers/USB/Core/AVR8/../AVR8/../AVR8/Endpoint_AVR8.h **** 			static inline bool Endpoint_HasEndpointInterrupted(const uint8_t EndpointNumber) ATTR_WARN_UNUSE
 453:LUFA/LUFA/Drivers/USB/Core/AVR8/../AVR8/../AVR8/Endpoint_AVR8.h **** 			static inline bool Endpoint_HasEndpointInterrupted(const uint8_t EndpointNumber)
 454:LUFA/LUFA/Drivers/USB/Core/AVR8/../AVR8/../AVR8/Endpoint_AVR8.h **** 			{
 455:LUFA/LUFA/Drivers/USB/Core/AVR8/../AVR8/../AVR8/Endpoint_AVR8.h **** 				return ((Endpoint_GetEndpointInterrupts() & (1 << EndpointNumber)) ? true : false);
 456:LUFA/LUFA/Drivers/USB/Core/AVR8/../AVR8/../AVR8/Endpoint_AVR8.h **** 			}
 457:LUFA/LUFA/Drivers/USB/Core/AVR8/../AVR8/../AVR8/Endpoint_AVR8.h **** 
 458:LUFA/LUFA/Drivers/USB/Core/AVR8/../AVR8/../AVR8/Endpoint_AVR8.h **** 			/** Determines if the selected IN endpoint is ready for a new packet to be sent to the host.
 459:LUFA/LUFA/Drivers/USB/Core/AVR8/../AVR8/../AVR8/Endpoint_AVR8.h **** 			 *
 460:LUFA/LUFA/Drivers/USB/Core/AVR8/../AVR8/../AVR8/Endpoint_AVR8.h **** 			 *  \ingroup Group_EndpointPacketManagement_AVR8
 461:LUFA/LUFA/Drivers/USB/Core/AVR8/../AVR8/../AVR8/Endpoint_AVR8.h **** 			 *
 462:LUFA/LUFA/Drivers/USB/Core/AVR8/../AVR8/../AVR8/Endpoint_AVR8.h **** 			 *  \return Boolean \c true if the current endpoint is ready for an IN packet, \c false otherwis
 463:LUFA/LUFA/Drivers/USB/Core/AVR8/../AVR8/../AVR8/Endpoint_AVR8.h **** 			 */
 464:LUFA/LUFA/Drivers/USB/Core/AVR8/../AVR8/../AVR8/Endpoint_AVR8.h **** 			static inline bool Endpoint_IsINReady(void) ATTR_WARN_UNUSED_RESULT ATTR_ALWAYS_INLINE;
 465:LUFA/LUFA/Drivers/USB/Core/AVR8/../AVR8/../AVR8/Endpoint_AVR8.h **** 			static inline bool Endpoint_IsINReady(void)
 466:LUFA/LUFA/Drivers/USB/Core/AVR8/../AVR8/../AVR8/Endpoint_AVR8.h **** 			{
 467:LUFA/LUFA/Drivers/USB/Core/AVR8/../AVR8/../AVR8/Endpoint_AVR8.h **** 				return ((UEINTX & (1 << TXINI)) ? true : false);
 468:LUFA/LUFA/Drivers/USB/Core/AVR8/../AVR8/../AVR8/Endpoint_AVR8.h **** 			}
 469:LUFA/LUFA/Drivers/USB/Core/AVR8/../AVR8/../AVR8/Endpoint_AVR8.h **** 
 470:LUFA/LUFA/Drivers/USB/Core/AVR8/../AVR8/../AVR8/Endpoint_AVR8.h **** 			/** Determines if the selected OUT endpoint has received new packet from the host.
 471:LUFA/LUFA/Drivers/USB/Core/AVR8/../AVR8/../AVR8/Endpoint_AVR8.h **** 			 *
 472:LUFA/LUFA/Drivers/USB/Core/AVR8/../AVR8/../AVR8/Endpoint_AVR8.h **** 			 *  \ingroup Group_EndpointPacketManagement_AVR8
 473:LUFA/LUFA/Drivers/USB/Core/AVR8/../AVR8/../AVR8/Endpoint_AVR8.h **** 			 *
 474:LUFA/LUFA/Drivers/USB/Core/AVR8/../AVR8/../AVR8/Endpoint_AVR8.h **** 			 *  \return Boolean \c true if current endpoint is has received an OUT packet, \c false otherwis
 475:LUFA/LUFA/Drivers/USB/Core/AVR8/../AVR8/../AVR8/Endpoint_AVR8.h **** 			 */
 476:LUFA/LUFA/Drivers/USB/Core/AVR8/../AVR8/../AVR8/Endpoint_AVR8.h **** 			static inline bool Endpoint_IsOUTReceived(void) ATTR_WARN_UNUSED_RESULT ATTR_ALWAYS_INLINE;
 477:LUFA/LUFA/Drivers/USB/Core/AVR8/../AVR8/../AVR8/Endpoint_AVR8.h **** 			static inline bool Endpoint_IsOUTReceived(void)
 478:LUFA/LUFA/Drivers/USB/Core/AVR8/../AVR8/../AVR8/Endpoint_AVR8.h **** 			{
 479:LUFA/LUFA/Drivers/USB/Core/AVR8/../AVR8/../AVR8/Endpoint_AVR8.h **** 				return ((UEINTX & (1 << RXOUTI)) ? true : false);
 480:LUFA/LUFA/Drivers/USB/Core/AVR8/../AVR8/../AVR8/Endpoint_AVR8.h **** 			}
 481:LUFA/LUFA/Drivers/USB/Core/AVR8/../AVR8/../AVR8/Endpoint_AVR8.h **** 
 482:LUFA/LUFA/Drivers/USB/Core/AVR8/../AVR8/../AVR8/Endpoint_AVR8.h **** 			/** Determines if the current CONTROL type endpoint has received a SETUP packet.
 483:LUFA/LUFA/Drivers/USB/Core/AVR8/../AVR8/../AVR8/Endpoint_AVR8.h **** 			 *
 484:LUFA/LUFA/Drivers/USB/Core/AVR8/../AVR8/../AVR8/Endpoint_AVR8.h **** 			 *  \ingroup Group_EndpointPacketManagement_AVR8
 485:LUFA/LUFA/Drivers/USB/Core/AVR8/../AVR8/../AVR8/Endpoint_AVR8.h **** 			 *
 486:LUFA/LUFA/Drivers/USB/Core/AVR8/../AVR8/../AVR8/Endpoint_AVR8.h **** 			 *  \return Boolean \c true if the selected endpoint has received a SETUP packet, \c false other
 487:LUFA/LUFA/Drivers/USB/Core/AVR8/../AVR8/../AVR8/Endpoint_AVR8.h **** 			 */
 488:LUFA/LUFA/Drivers/USB/Core/AVR8/../AVR8/../AVR8/Endpoint_AVR8.h **** 			static inline bool Endpoint_IsSETUPReceived(void) ATTR_WARN_UNUSED_RESULT ATTR_ALWAYS_INLINE;
 489:LUFA/LUFA/Drivers/USB/Core/AVR8/../AVR8/../AVR8/Endpoint_AVR8.h **** 			static inline bool Endpoint_IsSETUPReceived(void)
 490:LUFA/LUFA/Drivers/USB/Core/AVR8/../AVR8/../AVR8/Endpoint_AVR8.h **** 			{
 491:LUFA/LUFA/Drivers/USB/Core/AVR8/../AVR8/../AVR8/Endpoint_AVR8.h **** 				return ((UEINTX & (1 << RXSTPI)) ? true : false);
 492:LUFA/LUFA/Drivers/USB/Core/AVR8/../AVR8/../AVR8/Endpoint_AVR8.h **** 			}
 493:LUFA/LUFA/Drivers/USB/Core/AVR8/../AVR8/../AVR8/Endpoint_AVR8.h **** 
 494:LUFA/LUFA/Drivers/USB/Core/AVR8/../AVR8/../AVR8/Endpoint_AVR8.h **** 			/** Clears a received SETUP packet on the currently selected CONTROL type endpoint, freeing up t
 495:LUFA/LUFA/Drivers/USB/Core/AVR8/../AVR8/../AVR8/Endpoint_AVR8.h **** 			 *  endpoint for the next packet.
 496:LUFA/LUFA/Drivers/USB/Core/AVR8/../AVR8/../AVR8/Endpoint_AVR8.h **** 			 *
 497:LUFA/LUFA/Drivers/USB/Core/AVR8/../AVR8/../AVR8/Endpoint_AVR8.h **** 			 *  \ingroup Group_EndpointPacketManagement_AVR8
 498:LUFA/LUFA/Drivers/USB/Core/AVR8/../AVR8/../AVR8/Endpoint_AVR8.h **** 			 *
 499:LUFA/LUFA/Drivers/USB/Core/AVR8/../AVR8/../AVR8/Endpoint_AVR8.h **** 			 *  \note This is not applicable for non CONTROL type endpoints.
 500:LUFA/LUFA/Drivers/USB/Core/AVR8/../AVR8/../AVR8/Endpoint_AVR8.h **** 			 */
 501:LUFA/LUFA/Drivers/USB/Core/AVR8/../AVR8/../AVR8/Endpoint_AVR8.h **** 			static inline void Endpoint_ClearSETUP(void) ATTR_ALWAYS_INLINE;
 502:LUFA/LUFA/Drivers/USB/Core/AVR8/../AVR8/../AVR8/Endpoint_AVR8.h **** 			static inline void Endpoint_ClearSETUP(void)
 503:LUFA/LUFA/Drivers/USB/Core/AVR8/../AVR8/../AVR8/Endpoint_AVR8.h **** 			{
 504:LUFA/LUFA/Drivers/USB/Core/AVR8/../AVR8/../AVR8/Endpoint_AVR8.h **** 				UEINTX &= ~(1 << RXSTPI);
 505:LUFA/LUFA/Drivers/USB/Core/AVR8/../AVR8/../AVR8/Endpoint_AVR8.h **** 			}
 506:LUFA/LUFA/Drivers/USB/Core/AVR8/../AVR8/../AVR8/Endpoint_AVR8.h **** 
 507:LUFA/LUFA/Drivers/USB/Core/AVR8/../AVR8/../AVR8/Endpoint_AVR8.h **** 			/** Sends an IN packet to the host on the currently selected endpoint, freeing up the endpoint f
 508:LUFA/LUFA/Drivers/USB/Core/AVR8/../AVR8/../AVR8/Endpoint_AVR8.h **** 			 *  next packet and switching to the alternative endpoint bank if double banked.
 509:LUFA/LUFA/Drivers/USB/Core/AVR8/../AVR8/../AVR8/Endpoint_AVR8.h **** 			 *
 510:LUFA/LUFA/Drivers/USB/Core/AVR8/../AVR8/../AVR8/Endpoint_AVR8.h **** 			 *  \ingroup Group_EndpointPacketManagement_AVR8
 511:LUFA/LUFA/Drivers/USB/Core/AVR8/../AVR8/../AVR8/Endpoint_AVR8.h **** 			 */
 512:LUFA/LUFA/Drivers/USB/Core/AVR8/../AVR8/../AVR8/Endpoint_AVR8.h **** 			static inline void Endpoint_ClearIN(void) ATTR_ALWAYS_INLINE;
 513:LUFA/LUFA/Drivers/USB/Core/AVR8/../AVR8/../AVR8/Endpoint_AVR8.h **** 			static inline void Endpoint_ClearIN(void)
 514:LUFA/LUFA/Drivers/USB/Core/AVR8/../AVR8/../AVR8/Endpoint_AVR8.h **** 			{
 515:LUFA/LUFA/Drivers/USB/Core/AVR8/../AVR8/../AVR8/Endpoint_AVR8.h **** 				#if !defined(CONTROL_ONLY_DEVICE)
 516:LUFA/LUFA/Drivers/USB/Core/AVR8/../AVR8/../AVR8/Endpoint_AVR8.h **** 					UEINTX &= ~((1 << TXINI) | (1 << FIFOCON));
 517:LUFA/LUFA/Drivers/USB/Core/AVR8/../AVR8/../AVR8/Endpoint_AVR8.h **** 				#else
 518:LUFA/LUFA/Drivers/USB/Core/AVR8/../AVR8/../AVR8/Endpoint_AVR8.h **** 					UEINTX &= ~(1 << TXINI);
 519:LUFA/LUFA/Drivers/USB/Core/AVR8/../AVR8/../AVR8/Endpoint_AVR8.h **** 				#endif
 520:LUFA/LUFA/Drivers/USB/Core/AVR8/../AVR8/../AVR8/Endpoint_AVR8.h **** 			}
 521:LUFA/LUFA/Drivers/USB/Core/AVR8/../AVR8/../AVR8/Endpoint_AVR8.h **** 
 522:LUFA/LUFA/Drivers/USB/Core/AVR8/../AVR8/../AVR8/Endpoint_AVR8.h **** 			/** Acknowledges an OUT packet to the host on the currently selected endpoint, freeing up the en
 523:LUFA/LUFA/Drivers/USB/Core/AVR8/../AVR8/../AVR8/Endpoint_AVR8.h **** 			 *  for the next packet and switching to the alternative endpoint bank if double banked.
 524:LUFA/LUFA/Drivers/USB/Core/AVR8/../AVR8/../AVR8/Endpoint_AVR8.h **** 			 *
 525:LUFA/LUFA/Drivers/USB/Core/AVR8/../AVR8/../AVR8/Endpoint_AVR8.h **** 			 *  \ingroup Group_EndpointPacketManagement_AVR8
 526:LUFA/LUFA/Drivers/USB/Core/AVR8/../AVR8/../AVR8/Endpoint_AVR8.h **** 			 */
 527:LUFA/LUFA/Drivers/USB/Core/AVR8/../AVR8/../AVR8/Endpoint_AVR8.h **** 			static inline void Endpoint_ClearOUT(void) ATTR_ALWAYS_INLINE;
 528:LUFA/LUFA/Drivers/USB/Core/AVR8/../AVR8/../AVR8/Endpoint_AVR8.h **** 			static inline void Endpoint_ClearOUT(void)
 106               		.loc 2 528 23 view .LVU20
 107               	.LBB259:
 529:LUFA/LUFA/Drivers/USB/Core/AVR8/../AVR8/../AVR8/Endpoint_AVR8.h **** 			{
 530:LUFA/LUFA/Drivers/USB/Core/AVR8/../AVR8/../AVR8/Endpoint_AVR8.h **** 				#if !defined(CONTROL_ONLY_DEVICE)
 531:LUFA/LUFA/Drivers/USB/Core/AVR8/../AVR8/../AVR8/Endpoint_AVR8.h **** 					UEINTX &= ~((1 << RXOUTI) | (1 << FIFOCON));
 108               		.loc 2 531 6 view .LVU21
 109               		.loc 2 531 13 is_stmt 0 view .LVU22
 110 003c 8091 E800 		lds r24,232
 111 0040 8B77      		andi r24,lo8(123)
 112 0042 8093 E800 		sts 232,r24
 113               	.LBE259:
 114               	.LBE258:
  56:LUFA/LUFA/Drivers/USB/Core/AVR8/EndpointStream_AVR8.c **** 
  57:LUFA/LUFA/Drivers/USB/Core/AVR8/EndpointStream_AVR8.c **** 			if (BytesProcessed != NULL)
 115               		.loc 1 57 4 is_stmt 1 view .LVU23
 116               		.loc 1 57 7 is_stmt 0 view .LVU24
 117 0046 0115      		cp r16,__zero_reg__
 118 0048 1105      		cpc r17,__zero_reg__
 119 004a 01F0      		breq .L6
  58:LUFA/LUFA/Drivers/USB/Core/AVR8/EndpointStream_AVR8.c **** 			{
  59:LUFA/LUFA/Drivers/USB/Core/AVR8/EndpointStream_AVR8.c **** 				*BytesProcessed += BytesInTransfer;
 120               		.loc 1 59 5 is_stmt 1 view .LVU25
 121               		.loc 1 59 21 is_stmt 0 view .LVU26
 122 004c F801      		movw r30,r16
 123 004e 8081      		ld r24,Z
 124 0050 9181      		ldd r25,Z+1
 125 0052 C80E      		add r12,r24
 126 0054 D91E      		adc r13,r25
 127               	.LVL6:
 128               		.loc 1 59 21 view .LVU27
 129 0056 D182      		std Z+1,r13
 130 0058 C082      		st Z,r12
  60:LUFA/LUFA/Drivers/USB/Core/AVR8/EndpointStream_AVR8.c **** 				return ENDPOINT_RWSTREAM_IncompleteTransfer;
 131               		.loc 1 60 5 is_stmt 1 view .LVU28
 132               		.loc 1 60 12 is_stmt 0 view .LVU29
 133 005a 85E0      		ldi r24,lo8(5)
 134 005c F82E      		mov r15,r24
 135               	.L1:
  61:LUFA/LUFA/Drivers/USB/Core/AVR8/EndpointStream_AVR8.c **** 			}
  62:LUFA/LUFA/Drivers/USB/Core/AVR8/EndpointStream_AVR8.c **** 
  63:LUFA/LUFA/Drivers/USB/Core/AVR8/EndpointStream_AVR8.c **** 			if ((ErrorCode = Endpoint_WaitUntilReady()))
  64:LUFA/LUFA/Drivers/USB/Core/AVR8/EndpointStream_AVR8.c **** 			  return ErrorCode;
  65:LUFA/LUFA/Drivers/USB/Core/AVR8/EndpointStream_AVR8.c **** 		}
  66:LUFA/LUFA/Drivers/USB/Core/AVR8/EndpointStream_AVR8.c **** 		else
  67:LUFA/LUFA/Drivers/USB/Core/AVR8/EndpointStream_AVR8.c **** 		{
  68:LUFA/LUFA/Drivers/USB/Core/AVR8/EndpointStream_AVR8.c **** 			Endpoint_Discard_8();
  69:LUFA/LUFA/Drivers/USB/Core/AVR8/EndpointStream_AVR8.c **** 
  70:LUFA/LUFA/Drivers/USB/Core/AVR8/EndpointStream_AVR8.c **** 			Length--;
  71:LUFA/LUFA/Drivers/USB/Core/AVR8/EndpointStream_AVR8.c **** 			BytesInTransfer++;
  72:LUFA/LUFA/Drivers/USB/Core/AVR8/EndpointStream_AVR8.c **** 		}
  73:LUFA/LUFA/Drivers/USB/Core/AVR8/EndpointStream_AVR8.c **** 	}
  74:LUFA/LUFA/Drivers/USB/Core/AVR8/EndpointStream_AVR8.c **** 	
  75:LUFA/LUFA/Drivers/USB/Core/AVR8/EndpointStream_AVR8.c **** 	return ENDPOINT_RWSTREAM_NoError;
  76:LUFA/LUFA/Drivers/USB/Core/AVR8/EndpointStream_AVR8.c **** }
 136               		.loc 1 76 1 view .LVU30
 137 005e 8F2D      		mov r24,r15
 138               	/* epilogue start */
 139 0060 DF91      		pop r29
 140 0062 CF91      		pop r28
 141               	.LVL7:
 142               		.loc 1 76 1 view .LVU31
 143 0064 1F91      		pop r17
 144 0066 0F91      		pop r16
 145               	.LVL8:
 146               		.loc 1 76 1 view .LVU32
 147 0068 FF90      		pop r15
 148 006a DF90      		pop r13
 149 006c CF90      		pop r12
 150 006e 0895      		ret
 151               	.LVL9:
 152               	.L6:
  63:LUFA/LUFA/Drivers/USB/Core/AVR8/EndpointStream_AVR8.c **** 			  return ErrorCode;
 153               		.loc 1 63 4 is_stmt 1 view .LVU33
  63:LUFA/LUFA/Drivers/USB/Core/AVR8/EndpointStream_AVR8.c **** 			  return ErrorCode;
 154               		.loc 1 63 21 is_stmt 0 view .LVU34
 155 0070 0E94 0000 		call Endpoint_WaitUntilReady
 156               	.LVL10:
  63:LUFA/LUFA/Drivers/USB/Core/AVR8/EndpointStream_AVR8.c **** 			  return ErrorCode;
 157               		.loc 1 63 7 view .LVU35
 158 0074 8823      		tst r24
 159 0076 01F0      		breq .L4
 160 0078 F82E      		mov r15,r24
 161 007a 00C0      		rjmp .L1
 162               	.LVL11:
 163               	.L5:
  68:LUFA/LUFA/Drivers/USB/Core/AVR8/EndpointStream_AVR8.c **** 
 164               		.loc 1 68 4 is_stmt 1 view .LVU36
 165               	.LBB260:
 166               	.LBI260:
 532:LUFA/LUFA/Drivers/USB/Core/AVR8/../AVR8/../AVR8/Endpoint_AVR8.h **** 				#else
 533:LUFA/LUFA/Drivers/USB/Core/AVR8/../AVR8/../AVR8/Endpoint_AVR8.h **** 					UEINTX &= ~(1 << RXOUTI);
 534:LUFA/LUFA/Drivers/USB/Core/AVR8/../AVR8/../AVR8/Endpoint_AVR8.h **** 				#endif
 535:LUFA/LUFA/Drivers/USB/Core/AVR8/../AVR8/../AVR8/Endpoint_AVR8.h **** 			}
 536:LUFA/LUFA/Drivers/USB/Core/AVR8/../AVR8/../AVR8/Endpoint_AVR8.h **** 
 537:LUFA/LUFA/Drivers/USB/Core/AVR8/../AVR8/../AVR8/Endpoint_AVR8.h **** 			/** Stalls the current endpoint, indicating to the host that a logical problem occurred with the
 538:LUFA/LUFA/Drivers/USB/Core/AVR8/../AVR8/../AVR8/Endpoint_AVR8.h **** 			 *  indicated endpoint and that the current transfer sequence should be aborted. This provides a
 539:LUFA/LUFA/Drivers/USB/Core/AVR8/../AVR8/../AVR8/Endpoint_AVR8.h **** 			 *  way for devices to indicate invalid commands to the host so that the current transfer can be
 540:LUFA/LUFA/Drivers/USB/Core/AVR8/../AVR8/../AVR8/Endpoint_AVR8.h **** 			 *  aborted and the host can begin its own recovery sequence.
 541:LUFA/LUFA/Drivers/USB/Core/AVR8/../AVR8/../AVR8/Endpoint_AVR8.h **** 			 *
 542:LUFA/LUFA/Drivers/USB/Core/AVR8/../AVR8/../AVR8/Endpoint_AVR8.h **** 			 *  The currently selected endpoint remains stalled until either the \ref Endpoint_ClearStall() 
 543:LUFA/LUFA/Drivers/USB/Core/AVR8/../AVR8/../AVR8/Endpoint_AVR8.h **** 			 *  is called, or the host issues a CLEAR FEATURE request to the device for the currently select
 544:LUFA/LUFA/Drivers/USB/Core/AVR8/../AVR8/../AVR8/Endpoint_AVR8.h **** 			 *  endpoint.
 545:LUFA/LUFA/Drivers/USB/Core/AVR8/../AVR8/../AVR8/Endpoint_AVR8.h **** 			 *
 546:LUFA/LUFA/Drivers/USB/Core/AVR8/../AVR8/../AVR8/Endpoint_AVR8.h **** 			 *  \ingroup Group_EndpointPacketManagement_AVR8
 547:LUFA/LUFA/Drivers/USB/Core/AVR8/../AVR8/../AVR8/Endpoint_AVR8.h **** 			 */
 548:LUFA/LUFA/Drivers/USB/Core/AVR8/../AVR8/../AVR8/Endpoint_AVR8.h **** 			static inline void Endpoint_StallTransaction(void) ATTR_ALWAYS_INLINE;
 549:LUFA/LUFA/Drivers/USB/Core/AVR8/../AVR8/../AVR8/Endpoint_AVR8.h **** 			static inline void Endpoint_StallTransaction(void)
 550:LUFA/LUFA/Drivers/USB/Core/AVR8/../AVR8/../AVR8/Endpoint_AVR8.h **** 			{
 551:LUFA/LUFA/Drivers/USB/Core/AVR8/../AVR8/../AVR8/Endpoint_AVR8.h **** 				UECONX |= (1 << STALLRQ);
 552:LUFA/LUFA/Drivers/USB/Core/AVR8/../AVR8/../AVR8/Endpoint_AVR8.h **** 			}
 553:LUFA/LUFA/Drivers/USB/Core/AVR8/../AVR8/../AVR8/Endpoint_AVR8.h **** 
 554:LUFA/LUFA/Drivers/USB/Core/AVR8/../AVR8/../AVR8/Endpoint_AVR8.h **** 			/** Clears the STALL condition on the currently selected endpoint.
 555:LUFA/LUFA/Drivers/USB/Core/AVR8/../AVR8/../AVR8/Endpoint_AVR8.h **** 			 *
 556:LUFA/LUFA/Drivers/USB/Core/AVR8/../AVR8/../AVR8/Endpoint_AVR8.h **** 			 *  \ingroup Group_EndpointPacketManagement_AVR8
 557:LUFA/LUFA/Drivers/USB/Core/AVR8/../AVR8/../AVR8/Endpoint_AVR8.h **** 			 */
 558:LUFA/LUFA/Drivers/USB/Core/AVR8/../AVR8/../AVR8/Endpoint_AVR8.h **** 			static inline void Endpoint_ClearStall(void) ATTR_ALWAYS_INLINE;
 559:LUFA/LUFA/Drivers/USB/Core/AVR8/../AVR8/../AVR8/Endpoint_AVR8.h **** 			static inline void Endpoint_ClearStall(void)
 560:LUFA/LUFA/Drivers/USB/Core/AVR8/../AVR8/../AVR8/Endpoint_AVR8.h **** 			{
 561:LUFA/LUFA/Drivers/USB/Core/AVR8/../AVR8/../AVR8/Endpoint_AVR8.h **** 				UECONX |= (1 << STALLRQC);
 562:LUFA/LUFA/Drivers/USB/Core/AVR8/../AVR8/../AVR8/Endpoint_AVR8.h **** 			}
 563:LUFA/LUFA/Drivers/USB/Core/AVR8/../AVR8/../AVR8/Endpoint_AVR8.h **** 
 564:LUFA/LUFA/Drivers/USB/Core/AVR8/../AVR8/../AVR8/Endpoint_AVR8.h **** 			/** Determines if the currently selected endpoint is stalled, false otherwise.
 565:LUFA/LUFA/Drivers/USB/Core/AVR8/../AVR8/../AVR8/Endpoint_AVR8.h **** 			 *
 566:LUFA/LUFA/Drivers/USB/Core/AVR8/../AVR8/../AVR8/Endpoint_AVR8.h **** 			 *  \ingroup Group_EndpointPacketManagement_AVR8
 567:LUFA/LUFA/Drivers/USB/Core/AVR8/../AVR8/../AVR8/Endpoint_AVR8.h **** 			 *
 568:LUFA/LUFA/Drivers/USB/Core/AVR8/../AVR8/../AVR8/Endpoint_AVR8.h **** 			 *  \return Boolean \c true if the currently selected endpoint is stalled, \c false otherwise.
 569:LUFA/LUFA/Drivers/USB/Core/AVR8/../AVR8/../AVR8/Endpoint_AVR8.h **** 			 */
 570:LUFA/LUFA/Drivers/USB/Core/AVR8/../AVR8/../AVR8/Endpoint_AVR8.h **** 			static inline bool Endpoint_IsStalled(void) ATTR_WARN_UNUSED_RESULT ATTR_ALWAYS_INLINE;
 571:LUFA/LUFA/Drivers/USB/Core/AVR8/../AVR8/../AVR8/Endpoint_AVR8.h **** 			static inline bool Endpoint_IsStalled(void)
 572:LUFA/LUFA/Drivers/USB/Core/AVR8/../AVR8/../AVR8/Endpoint_AVR8.h **** 			{
 573:LUFA/LUFA/Drivers/USB/Core/AVR8/../AVR8/../AVR8/Endpoint_AVR8.h **** 				return ((UECONX & (1 << STALLRQ)) ? true : false);
 574:LUFA/LUFA/Drivers/USB/Core/AVR8/../AVR8/../AVR8/Endpoint_AVR8.h **** 			}
 575:LUFA/LUFA/Drivers/USB/Core/AVR8/../AVR8/../AVR8/Endpoint_AVR8.h **** 
 576:LUFA/LUFA/Drivers/USB/Core/AVR8/../AVR8/../AVR8/Endpoint_AVR8.h **** 			/** Resets the data toggle of the currently selected endpoint. */
 577:LUFA/LUFA/Drivers/USB/Core/AVR8/../AVR8/../AVR8/Endpoint_AVR8.h **** 			static inline void Endpoint_ResetDataToggle(void) ATTR_ALWAYS_INLINE;
 578:LUFA/LUFA/Drivers/USB/Core/AVR8/../AVR8/../AVR8/Endpoint_AVR8.h **** 			static inline void Endpoint_ResetDataToggle(void)
 579:LUFA/LUFA/Drivers/USB/Core/AVR8/../AVR8/../AVR8/Endpoint_AVR8.h **** 			{
 580:LUFA/LUFA/Drivers/USB/Core/AVR8/../AVR8/../AVR8/Endpoint_AVR8.h **** 				UECONX |= (1 << RSTDT);
 581:LUFA/LUFA/Drivers/USB/Core/AVR8/../AVR8/../AVR8/Endpoint_AVR8.h **** 			}
 582:LUFA/LUFA/Drivers/USB/Core/AVR8/../AVR8/../AVR8/Endpoint_AVR8.h **** 
 583:LUFA/LUFA/Drivers/USB/Core/AVR8/../AVR8/../AVR8/Endpoint_AVR8.h **** 			/** Determines the currently selected endpoint's direction.
 584:LUFA/LUFA/Drivers/USB/Core/AVR8/../AVR8/../AVR8/Endpoint_AVR8.h **** 			 *
 585:LUFA/LUFA/Drivers/USB/Core/AVR8/../AVR8/../AVR8/Endpoint_AVR8.h **** 			 *  \return The currently selected endpoint's direction, as a \c ENDPOINT_DIR_* mask.
 586:LUFA/LUFA/Drivers/USB/Core/AVR8/../AVR8/../AVR8/Endpoint_AVR8.h **** 			 */
 587:LUFA/LUFA/Drivers/USB/Core/AVR8/../AVR8/../AVR8/Endpoint_AVR8.h **** 			static inline uint8_t Endpoint_GetEndpointDirection(void) ATTR_WARN_UNUSED_RESULT ATTR_ALWAYS_IN
 588:LUFA/LUFA/Drivers/USB/Core/AVR8/../AVR8/../AVR8/Endpoint_AVR8.h **** 			static inline uint8_t Endpoint_GetEndpointDirection(void)
 589:LUFA/LUFA/Drivers/USB/Core/AVR8/../AVR8/../AVR8/Endpoint_AVR8.h **** 			{
 590:LUFA/LUFA/Drivers/USB/Core/AVR8/../AVR8/../AVR8/Endpoint_AVR8.h **** 				return (UECFG0X & (1 << EPDIR)) ? ENDPOINT_DIR_IN : ENDPOINT_DIR_OUT;
 591:LUFA/LUFA/Drivers/USB/Core/AVR8/../AVR8/../AVR8/Endpoint_AVR8.h **** 			}
 592:LUFA/LUFA/Drivers/USB/Core/AVR8/../AVR8/../AVR8/Endpoint_AVR8.h **** 
 593:LUFA/LUFA/Drivers/USB/Core/AVR8/../AVR8/../AVR8/Endpoint_AVR8.h **** 			/** Sets the direction of the currently selected endpoint.
 594:LUFA/LUFA/Drivers/USB/Core/AVR8/../AVR8/../AVR8/Endpoint_AVR8.h **** 			 *
 595:LUFA/LUFA/Drivers/USB/Core/AVR8/../AVR8/../AVR8/Endpoint_AVR8.h **** 			 *  \param[in] DirectionMask  New endpoint direction, as a \c ENDPOINT_DIR_* mask.
 596:LUFA/LUFA/Drivers/USB/Core/AVR8/../AVR8/../AVR8/Endpoint_AVR8.h **** 			 */
 597:LUFA/LUFA/Drivers/USB/Core/AVR8/../AVR8/../AVR8/Endpoint_AVR8.h **** 			static inline void Endpoint_SetEndpointDirection(const uint8_t DirectionMask) ATTR_ALWAYS_INLINE
 598:LUFA/LUFA/Drivers/USB/Core/AVR8/../AVR8/../AVR8/Endpoint_AVR8.h **** 			static inline void Endpoint_SetEndpointDirection(const uint8_t DirectionMask)
 599:LUFA/LUFA/Drivers/USB/Core/AVR8/../AVR8/../AVR8/Endpoint_AVR8.h **** 			{
 600:LUFA/LUFA/Drivers/USB/Core/AVR8/../AVR8/../AVR8/Endpoint_AVR8.h **** 				UECFG0X = ((UECFG0X & ~(1 << EPDIR)) | (DirectionMask ? (1 << EPDIR) : 0));
 601:LUFA/LUFA/Drivers/USB/Core/AVR8/../AVR8/../AVR8/Endpoint_AVR8.h **** 			}
 602:LUFA/LUFA/Drivers/USB/Core/AVR8/../AVR8/../AVR8/Endpoint_AVR8.h **** 
 603:LUFA/LUFA/Drivers/USB/Core/AVR8/../AVR8/../AVR8/Endpoint_AVR8.h **** 			/** Reads one byte from the currently selected endpoint's bank, for OUT direction endpoints.
 604:LUFA/LUFA/Drivers/USB/Core/AVR8/../AVR8/../AVR8/Endpoint_AVR8.h **** 			 *
 605:LUFA/LUFA/Drivers/USB/Core/AVR8/../AVR8/../AVR8/Endpoint_AVR8.h **** 			 *  \ingroup Group_EndpointPrimitiveRW_AVR8
 606:LUFA/LUFA/Drivers/USB/Core/AVR8/../AVR8/../AVR8/Endpoint_AVR8.h **** 			 *
 607:LUFA/LUFA/Drivers/USB/Core/AVR8/../AVR8/../AVR8/Endpoint_AVR8.h **** 			 *  \return Next byte in the currently selected endpoint's FIFO buffer.
 608:LUFA/LUFA/Drivers/USB/Core/AVR8/../AVR8/../AVR8/Endpoint_AVR8.h **** 			 */
 609:LUFA/LUFA/Drivers/USB/Core/AVR8/../AVR8/../AVR8/Endpoint_AVR8.h **** 			static inline uint8_t Endpoint_Read_8(void) ATTR_WARN_UNUSED_RESULT ATTR_ALWAYS_INLINE;
 610:LUFA/LUFA/Drivers/USB/Core/AVR8/../AVR8/../AVR8/Endpoint_AVR8.h **** 			static inline uint8_t Endpoint_Read_8(void)
 611:LUFA/LUFA/Drivers/USB/Core/AVR8/../AVR8/../AVR8/Endpoint_AVR8.h **** 			{
 612:LUFA/LUFA/Drivers/USB/Core/AVR8/../AVR8/../AVR8/Endpoint_AVR8.h **** 				return UEDATX;
 613:LUFA/LUFA/Drivers/USB/Core/AVR8/../AVR8/../AVR8/Endpoint_AVR8.h **** 			}
 614:LUFA/LUFA/Drivers/USB/Core/AVR8/../AVR8/../AVR8/Endpoint_AVR8.h **** 
 615:LUFA/LUFA/Drivers/USB/Core/AVR8/../AVR8/../AVR8/Endpoint_AVR8.h **** 			/** Writes one byte to the currently selected endpoint's bank, for IN direction endpoints.
 616:LUFA/LUFA/Drivers/USB/Core/AVR8/../AVR8/../AVR8/Endpoint_AVR8.h **** 			 *
 617:LUFA/LUFA/Drivers/USB/Core/AVR8/../AVR8/../AVR8/Endpoint_AVR8.h **** 			 *  \ingroup Group_EndpointPrimitiveRW_AVR8
 618:LUFA/LUFA/Drivers/USB/Core/AVR8/../AVR8/../AVR8/Endpoint_AVR8.h **** 			 *
 619:LUFA/LUFA/Drivers/USB/Core/AVR8/../AVR8/../AVR8/Endpoint_AVR8.h **** 			 *  \param[in] Data  Data to write into the the currently selected endpoint's FIFO buffer.
 620:LUFA/LUFA/Drivers/USB/Core/AVR8/../AVR8/../AVR8/Endpoint_AVR8.h **** 			 */
 621:LUFA/LUFA/Drivers/USB/Core/AVR8/../AVR8/../AVR8/Endpoint_AVR8.h **** 			static inline void Endpoint_Write_8(const uint8_t Data) ATTR_ALWAYS_INLINE;
 622:LUFA/LUFA/Drivers/USB/Core/AVR8/../AVR8/../AVR8/Endpoint_AVR8.h **** 			static inline void Endpoint_Write_8(const uint8_t Data)
 623:LUFA/LUFA/Drivers/USB/Core/AVR8/../AVR8/../AVR8/Endpoint_AVR8.h **** 			{
 624:LUFA/LUFA/Drivers/USB/Core/AVR8/../AVR8/../AVR8/Endpoint_AVR8.h **** 				UEDATX = Data;
 625:LUFA/LUFA/Drivers/USB/Core/AVR8/../AVR8/../AVR8/Endpoint_AVR8.h **** 			}
 626:LUFA/LUFA/Drivers/USB/Core/AVR8/../AVR8/../AVR8/Endpoint_AVR8.h **** 
 627:LUFA/LUFA/Drivers/USB/Core/AVR8/../AVR8/../AVR8/Endpoint_AVR8.h **** 			/** Discards one byte from the currently selected endpoint's bank, for OUT direction endpoints.
 628:LUFA/LUFA/Drivers/USB/Core/AVR8/../AVR8/../AVR8/Endpoint_AVR8.h **** 			 *
 629:LUFA/LUFA/Drivers/USB/Core/AVR8/../AVR8/../AVR8/Endpoint_AVR8.h **** 			 *  \ingroup Group_EndpointPrimitiveRW_AVR8
 630:LUFA/LUFA/Drivers/USB/Core/AVR8/../AVR8/../AVR8/Endpoint_AVR8.h **** 			 */
 631:LUFA/LUFA/Drivers/USB/Core/AVR8/../AVR8/../AVR8/Endpoint_AVR8.h **** 			static inline void Endpoint_Discard_8(void) ATTR_ALWAYS_INLINE;
 632:LUFA/LUFA/Drivers/USB/Core/AVR8/../AVR8/../AVR8/Endpoint_AVR8.h **** 			static inline void Endpoint_Discard_8(void)
 167               		.loc 2 632 23 view .LVU37
 168               	.LBB261:
 633:LUFA/LUFA/Drivers/USB/Core/AVR8/../AVR8/../AVR8/Endpoint_AVR8.h **** 			{
 634:LUFA/LUFA/Drivers/USB/Core/AVR8/../AVR8/../AVR8/Endpoint_AVR8.h **** 				uint8_t Dummy;
 169               		.loc 2 634 5 view .LVU38
 635:LUFA/LUFA/Drivers/USB/Core/AVR8/../AVR8/../AVR8/Endpoint_AVR8.h **** 
 636:LUFA/LUFA/Drivers/USB/Core/AVR8/../AVR8/../AVR8/Endpoint_AVR8.h **** 				Dummy = UEDATX;
 170               		.loc 2 636 5 view .LVU39
 171               		.loc 2 636 11 is_stmt 0 view .LVU40
 172 007c 8091 F100 		lds r24,241
 637:LUFA/LUFA/Drivers/USB/Core/AVR8/../AVR8/../AVR8/Endpoint_AVR8.h **** 
 638:LUFA/LUFA/Drivers/USB/Core/AVR8/../AVR8/../AVR8/Endpoint_AVR8.h **** 				(void)Dummy;
 173               		.loc 2 638 5 is_stmt 1 view .LVU41
 174               	.LBE261:
 175               	.LBE260:
  70:LUFA/LUFA/Drivers/USB/Core/AVR8/EndpointStream_AVR8.c **** 			BytesInTransfer++;
 176               		.loc 1 70 4 view .LVU42
  70:LUFA/LUFA/Drivers/USB/Core/AVR8/EndpointStream_AVR8.c **** 			BytesInTransfer++;
 177               		.loc 1 70 10 is_stmt 0 view .LVU43
 178 0080 2197      		sbiw r28,1
 179               	.LVL12:
  71:LUFA/LUFA/Drivers/USB/Core/AVR8/EndpointStream_AVR8.c **** 		}
 180               		.loc 1 71 4 is_stmt 1 view .LVU44
  71:LUFA/LUFA/Drivers/USB/Core/AVR8/EndpointStream_AVR8.c **** 		}
 181               		.loc 1 71 19 is_stmt 0 view .LVU45
 182 0082 FFEF      		ldi r31,-1
 183 0084 CF1A      		sub r12,r31
 184 0086 DF0A      		sbc r13,r31
 185               	.LVL13:
  71:LUFA/LUFA/Drivers/USB/Core/AVR8/EndpointStream_AVR8.c **** 		}
 186               		.loc 1 71 19 view .LVU46
 187 0088 00C0      		rjmp .L4
 188               		.cfi_endproc
 189               	.LFE81:
 191               		.section	.text.Endpoint_Null_Stream,"ax",@progbits
 192               	.global	Endpoint_Null_Stream
 194               	Endpoint_Null_Stream:
 195               	.LVL14:
 196               	.LFB82:
  77:LUFA/LUFA/Drivers/USB/Core/AVR8/EndpointStream_AVR8.c **** 
  78:LUFA/LUFA/Drivers/USB/Core/AVR8/EndpointStream_AVR8.c **** uint8_t Endpoint_Null_Stream(uint16_t Length,
  79:LUFA/LUFA/Drivers/USB/Core/AVR8/EndpointStream_AVR8.c ****                              uint16_t* const BytesProcessed)
  80:LUFA/LUFA/Drivers/USB/Core/AVR8/EndpointStream_AVR8.c **** {
 197               		.loc 1 80 1 is_stmt 1 view -0
 198               		.cfi_startproc
 199               		.loc 1 80 1 is_stmt 0 view .LVU48
 200 0000 CF92      		push r12
 201               	.LCFI7:
 202               		.cfi_def_cfa_offset 3
 203               		.cfi_offset 12, -2
 204 0002 DF92      		push r13
 205               	.LCFI8:
 206               		.cfi_def_cfa_offset 4
 207               		.cfi_offset 13, -3
 208 0004 FF92      		push r15
 209               	.LCFI9:
 210               		.cfi_def_cfa_offset 5
 211               		.cfi_offset 15, -4
 212 0006 0F93      		push r16
 213               	.LCFI10:
 214               		.cfi_def_cfa_offset 6
 215               		.cfi_offset 16, -5
 216 0008 1F93      		push r17
 217               	.LCFI11:
 218               		.cfi_def_cfa_offset 7
 219               		.cfi_offset 17, -6
 220 000a CF93      		push r28
 221               	.LCFI12:
 222               		.cfi_def_cfa_offset 8
 223               		.cfi_offset 28, -7
 224 000c DF93      		push r29
 225               	.LCFI13:
 226               		.cfi_def_cfa_offset 9
 227               		.cfi_offset 29, -8
 228               	/* prologue: function */
 229               	/* frame size = 0 */
 230               	/* stack size = 7 */
 231               	.L__stack_usage = 7
 232 000e EC01      		movw r28,r24
 233 0010 8B01      		movw r16,r22
  81:LUFA/LUFA/Drivers/USB/Core/AVR8/EndpointStream_AVR8.c **** 	uint8_t  ErrorCode;
 234               		.loc 1 81 2 is_stmt 1 view .LVU49
  82:LUFA/LUFA/Drivers/USB/Core/AVR8/EndpointStream_AVR8.c **** 	uint16_t BytesInTransfer = 0;
 235               		.loc 1 82 2 view .LVU50
 236               	.LVL15:
  83:LUFA/LUFA/Drivers/USB/Core/AVR8/EndpointStream_AVR8.c **** 	
  84:LUFA/LUFA/Drivers/USB/Core/AVR8/EndpointStream_AVR8.c **** 	if ((ErrorCode = Endpoint_WaitUntilReady()))
 237               		.loc 1 84 2 view .LVU51
 238               		.loc 1 84 19 is_stmt 0 view .LVU52
 239 0012 0E94 0000 		call Endpoint_WaitUntilReady
 240               	.LVL16:
 241               		.loc 1 84 19 view .LVU53
 242 0016 F82E      		mov r15,r24
 243               	.LVL17:
 244               		.loc 1 84 5 view .LVU54
 245 0018 8111      		cpse r24,__zero_reg__
 246 001a 00C0      		rjmp .L13
  85:LUFA/LUFA/Drivers/USB/Core/AVR8/EndpointStream_AVR8.c **** 	  return ErrorCode;
  86:LUFA/LUFA/Drivers/USB/Core/AVR8/EndpointStream_AVR8.c **** 	  
  87:LUFA/LUFA/Drivers/USB/Core/AVR8/EndpointStream_AVR8.c **** 	if (BytesProcessed != NULL)
 247               		.loc 1 87 2 is_stmt 1 view .LVU55
 248               		.loc 1 87 5 is_stmt 0 view .LVU56
 249 001c 0115      		cp r16,__zero_reg__
 250 001e 1105      		cpc r17,__zero_reg__
 251 0020 01F0      		breq .L15
  88:LUFA/LUFA/Drivers/USB/Core/AVR8/EndpointStream_AVR8.c **** 	  Length -= *BytesProcessed;
 252               		.loc 1 88 4 is_stmt 1 view .LVU57
 253               		.loc 1 88 11 is_stmt 0 view .LVU58
 254 0022 F801      		movw r30,r16
 255 0024 8081      		ld r24,Z
 256 0026 9181      		ldd r25,Z+1
 257 0028 C81B      		sub r28,r24
 258 002a D90B      		sbc r29,r25
 259               	.LVL18:
 260               	.L15:
  80:LUFA/LUFA/Drivers/USB/Core/AVR8/EndpointStream_AVR8.c **** 	uint8_t  ErrorCode;
 261               		.loc 1 80 1 view .LVU59
 262 002c D12C      		mov r13,__zero_reg__
 263 002e C12C      		mov r12,__zero_reg__
 264               	.LVL19:
 265               	.L16:
  89:LUFA/LUFA/Drivers/USB/Core/AVR8/EndpointStream_AVR8.c **** 
  90:LUFA/LUFA/Drivers/USB/Core/AVR8/EndpointStream_AVR8.c **** 	while (Length)
 266               		.loc 1 90 8 is_stmt 1 view .LVU60
 267 0030 2097      		sbiw r28,0
 268 0032 01F0      		breq .L13
  91:LUFA/LUFA/Drivers/USB/Core/AVR8/EndpointStream_AVR8.c **** 	{
  92:LUFA/LUFA/Drivers/USB/Core/AVR8/EndpointStream_AVR8.c **** 		if (!(Endpoint_IsReadWriteAllowed()))
 269               		.loc 1 92 3 view .LVU61
 270               	.LBB262:
 271               	.LBI262:
 418:LUFA/LUFA/Drivers/USB/Core/AVR8/../AVR8/../AVR8/Endpoint_AVR8.h **** 			{
 272               		.loc 2 418 23 view .LVU62
 273               	.LBB263:
 420:LUFA/LUFA/Drivers/USB/Core/AVR8/../AVR8/../AVR8/Endpoint_AVR8.h **** 			}
 274               		.loc 2 420 5 view .LVU63
 420:LUFA/LUFA/Drivers/USB/Core/AVR8/../AVR8/../AVR8/Endpoint_AVR8.h **** 			}
 275               		.loc 2 420 14 is_stmt 0 view .LVU64
 276 0034 8091 E800 		lds r24,232
 277               	.LBE263:
 278               	.LBE262:
 279               		.loc 1 92 6 view .LVU65
 280 0038 85FD      		sbrc r24,5
 281 003a 00C0      		rjmp .L17
  93:LUFA/LUFA/Drivers/USB/Core/AVR8/EndpointStream_AVR8.c **** 		{
  94:LUFA/LUFA/Drivers/USB/Core/AVR8/EndpointStream_AVR8.c **** 			Endpoint_ClearIN();
 282               		.loc 1 94 4 is_stmt 1 view .LVU66
 283               	.LBB264:
 284               	.LBI264:
 513:LUFA/LUFA/Drivers/USB/Core/AVR8/../AVR8/../AVR8/Endpoint_AVR8.h **** 			{
 285               		.loc 2 513 23 view .LVU67
 286               	.LBB265:
 516:LUFA/LUFA/Drivers/USB/Core/AVR8/../AVR8/../AVR8/Endpoint_AVR8.h **** 				#else
 287               		.loc 2 516 6 view .LVU68
 516:LUFA/LUFA/Drivers/USB/Core/AVR8/../AVR8/../AVR8/Endpoint_AVR8.h **** 				#else
 288               		.loc 2 516 13 is_stmt 0 view .LVU69
 289 003c 8091 E800 		lds r24,232
 290 0040 8E77      		andi r24,lo8(126)
 291 0042 8093 E800 		sts 232,r24
 292               	.LBE265:
 293               	.LBE264:
  95:LUFA/LUFA/Drivers/USB/Core/AVR8/EndpointStream_AVR8.c **** 
  96:LUFA/LUFA/Drivers/USB/Core/AVR8/EndpointStream_AVR8.c **** 			if (BytesProcessed != NULL)
 294               		.loc 1 96 4 is_stmt 1 view .LVU70
 295               		.loc 1 96 7 is_stmt 0 view .LVU71
 296 0046 0115      		cp r16,__zero_reg__
 297 0048 1105      		cpc r17,__zero_reg__
 298 004a 01F0      		breq .L18
  97:LUFA/LUFA/Drivers/USB/Core/AVR8/EndpointStream_AVR8.c **** 			{
  98:LUFA/LUFA/Drivers/USB/Core/AVR8/EndpointStream_AVR8.c **** 				*BytesProcessed += BytesInTransfer;
 299               		.loc 1 98 5 is_stmt 1 view .LVU72
 300               		.loc 1 98 21 is_stmt 0 view .LVU73
 301 004c F801      		movw r30,r16
 302 004e 8081      		ld r24,Z
 303 0050 9181      		ldd r25,Z+1
 304 0052 C80E      		add r12,r24
 305 0054 D91E      		adc r13,r25
 306               	.LVL20:
 307               		.loc 1 98 21 view .LVU74
 308 0056 D182      		std Z+1,r13
 309 0058 C082      		st Z,r12
  99:LUFA/LUFA/Drivers/USB/Core/AVR8/EndpointStream_AVR8.c **** 				return ENDPOINT_RWSTREAM_IncompleteTransfer;
 310               		.loc 1 99 5 is_stmt 1 view .LVU75
 311               		.loc 1 99 12 is_stmt 0 view .LVU76
 312 005a 85E0      		ldi r24,lo8(5)
 313 005c F82E      		mov r15,r24
 314               	.L13:
 100:LUFA/LUFA/Drivers/USB/Core/AVR8/EndpointStream_AVR8.c **** 			}
 101:LUFA/LUFA/Drivers/USB/Core/AVR8/EndpointStream_AVR8.c **** 
 102:LUFA/LUFA/Drivers/USB/Core/AVR8/EndpointStream_AVR8.c **** 			if ((ErrorCode = Endpoint_WaitUntilReady()))
 103:LUFA/LUFA/Drivers/USB/Core/AVR8/EndpointStream_AVR8.c **** 			  return ErrorCode;
 104:LUFA/LUFA/Drivers/USB/Core/AVR8/EndpointStream_AVR8.c **** 		}
 105:LUFA/LUFA/Drivers/USB/Core/AVR8/EndpointStream_AVR8.c **** 		else
 106:LUFA/LUFA/Drivers/USB/Core/AVR8/EndpointStream_AVR8.c **** 		{
 107:LUFA/LUFA/Drivers/USB/Core/AVR8/EndpointStream_AVR8.c **** 			Endpoint_Write_8(0);
 108:LUFA/LUFA/Drivers/USB/Core/AVR8/EndpointStream_AVR8.c **** 
 109:LUFA/LUFA/Drivers/USB/Core/AVR8/EndpointStream_AVR8.c **** 			Length--;
 110:LUFA/LUFA/Drivers/USB/Core/AVR8/EndpointStream_AVR8.c **** 			BytesInTransfer++;
 111:LUFA/LUFA/Drivers/USB/Core/AVR8/EndpointStream_AVR8.c **** 		}
 112:LUFA/LUFA/Drivers/USB/Core/AVR8/EndpointStream_AVR8.c **** 	}
 113:LUFA/LUFA/Drivers/USB/Core/AVR8/EndpointStream_AVR8.c **** 	
 114:LUFA/LUFA/Drivers/USB/Core/AVR8/EndpointStream_AVR8.c **** 	return ENDPOINT_RWSTREAM_NoError;
 115:LUFA/LUFA/Drivers/USB/Core/AVR8/EndpointStream_AVR8.c **** }
 315               		.loc 1 115 1 view .LVU77
 316 005e 8F2D      		mov r24,r15
 317               	/* epilogue start */
 318 0060 DF91      		pop r29
 319 0062 CF91      		pop r28
 320               	.LVL21:
 321               		.loc 1 115 1 view .LVU78
 322 0064 1F91      		pop r17
 323 0066 0F91      		pop r16
 324               	.LVL22:
 325               		.loc 1 115 1 view .LVU79
 326 0068 FF90      		pop r15
 327 006a DF90      		pop r13
 328 006c CF90      		pop r12
 329 006e 0895      		ret
 330               	.LVL23:
 331               	.L18:
 102:LUFA/LUFA/Drivers/USB/Core/AVR8/EndpointStream_AVR8.c **** 			  return ErrorCode;
 332               		.loc 1 102 4 is_stmt 1 view .LVU80
 102:LUFA/LUFA/Drivers/USB/Core/AVR8/EndpointStream_AVR8.c **** 			  return ErrorCode;
 333               		.loc 1 102 21 is_stmt 0 view .LVU81
 334 0070 0E94 0000 		call Endpoint_WaitUntilReady
 335               	.LVL24:
 102:LUFA/LUFA/Drivers/USB/Core/AVR8/EndpointStream_AVR8.c **** 			  return ErrorCode;
 336               		.loc 1 102 7 view .LVU82
 337 0074 8823      		tst r24
 338 0076 01F0      		breq .L16
 339 0078 F82E      		mov r15,r24
 340 007a 00C0      		rjmp .L13
 341               	.LVL25:
 342               	.L17:
 107:LUFA/LUFA/Drivers/USB/Core/AVR8/EndpointStream_AVR8.c **** 
 343               		.loc 1 107 4 is_stmt 1 view .LVU83
 344               	.LBB266:
 345               	.LBI266:
 622:LUFA/LUFA/Drivers/USB/Core/AVR8/../AVR8/../AVR8/Endpoint_AVR8.h **** 			{
 346               		.loc 2 622 23 view .LVU84
 347               	.LBB267:
 624:LUFA/LUFA/Drivers/USB/Core/AVR8/../AVR8/../AVR8/Endpoint_AVR8.h **** 			}
 348               		.loc 2 624 5 view .LVU85
 624:LUFA/LUFA/Drivers/USB/Core/AVR8/../AVR8/../AVR8/Endpoint_AVR8.h **** 			}
 349               		.loc 2 624 12 is_stmt 0 view .LVU86
 350 007c 1092 F100 		sts 241,__zero_reg__
 351               	.LVL26:
 624:LUFA/LUFA/Drivers/USB/Core/AVR8/../AVR8/../AVR8/Endpoint_AVR8.h **** 			}
 352               		.loc 2 624 12 view .LVU87
 353               	.LBE267:
 354               	.LBE266:
 109:LUFA/LUFA/Drivers/USB/Core/AVR8/EndpointStream_AVR8.c **** 			BytesInTransfer++;
 355               		.loc 1 109 4 is_stmt 1 view .LVU88
 109:LUFA/LUFA/Drivers/USB/Core/AVR8/EndpointStream_AVR8.c **** 			BytesInTransfer++;
 356               		.loc 1 109 10 is_stmt 0 view .LVU89
 357 0080 2197      		sbiw r28,1
 358               	.LVL27:
 110:LUFA/LUFA/Drivers/USB/Core/AVR8/EndpointStream_AVR8.c **** 		}
 359               		.loc 1 110 4 is_stmt 1 view .LVU90
 110:LUFA/LUFA/Drivers/USB/Core/AVR8/EndpointStream_AVR8.c **** 		}
 360               		.loc 1 110 19 is_stmt 0 view .LVU91
 361 0082 FFEF      		ldi r31,-1
 362 0084 CF1A      		sub r12,r31
 363 0086 DF0A      		sbc r13,r31
 364               	.LVL28:
 110:LUFA/LUFA/Drivers/USB/Core/AVR8/EndpointStream_AVR8.c **** 		}
 365               		.loc 1 110 19 view .LVU92
 366 0088 00C0      		rjmp .L16
 367               		.cfi_endproc
 368               	.LFE82:
 370               		.section	.text.Endpoint_Write_Stream_LE,"ax",@progbits
 371               	.global	Endpoint_Write_Stream_LE
 373               	Endpoint_Write_Stream_LE:
 374               	.LVL29:
 375               	.LFB83:
 376               		.file 3 "LUFA/LUFA/Drivers/USB/Core/AVR8/Template/Template_Endpoint_RW.c"
   1:LUFA/LUFA/Drivers/USB/Core/AVR8/Template/Template_Endpoint_RW.c **** /*
   2:LUFA/LUFA/Drivers/USB/Core/AVR8/Template/Template_Endpoint_RW.c ****              LUFA Library
   3:LUFA/LUFA/Drivers/USB/Core/AVR8/Template/Template_Endpoint_RW.c ****      Copyright (C) Dean Camera, 2011.
   4:LUFA/LUFA/Drivers/USB/Core/AVR8/Template/Template_Endpoint_RW.c **** 
   5:LUFA/LUFA/Drivers/USB/Core/AVR8/Template/Template_Endpoint_RW.c ****   dean [at] fourwalledcubicle [dot] com
   6:LUFA/LUFA/Drivers/USB/Core/AVR8/Template/Template_Endpoint_RW.c ****            www.lufa-lib.org
   7:LUFA/LUFA/Drivers/USB/Core/AVR8/Template/Template_Endpoint_RW.c **** */
   8:LUFA/LUFA/Drivers/USB/Core/AVR8/Template/Template_Endpoint_RW.c **** 
   9:LUFA/LUFA/Drivers/USB/Core/AVR8/Template/Template_Endpoint_RW.c **** /*
  10:LUFA/LUFA/Drivers/USB/Core/AVR8/Template/Template_Endpoint_RW.c ****   Copyright 2011  Dean Camera (dean [at] fourwalledcubicle [dot] com)
  11:LUFA/LUFA/Drivers/USB/Core/AVR8/Template/Template_Endpoint_RW.c **** 
  12:LUFA/LUFA/Drivers/USB/Core/AVR8/Template/Template_Endpoint_RW.c ****   Permission to use, copy, modify, distribute, and sell this
  13:LUFA/LUFA/Drivers/USB/Core/AVR8/Template/Template_Endpoint_RW.c ****   software and its documentation for any purpose is hereby granted
  14:LUFA/LUFA/Drivers/USB/Core/AVR8/Template/Template_Endpoint_RW.c ****   without fee, provided that the above copyright notice appear in
  15:LUFA/LUFA/Drivers/USB/Core/AVR8/Template/Template_Endpoint_RW.c ****   all copies and that both that the copyright notice and this
  16:LUFA/LUFA/Drivers/USB/Core/AVR8/Template/Template_Endpoint_RW.c ****   permission notice and warranty disclaimer appear in supporting
  17:LUFA/LUFA/Drivers/USB/Core/AVR8/Template/Template_Endpoint_RW.c ****   documentation, and that the name of the author not be used in
  18:LUFA/LUFA/Drivers/USB/Core/AVR8/Template/Template_Endpoint_RW.c ****   advertising or publicity pertaining to distribution of the
  19:LUFA/LUFA/Drivers/USB/Core/AVR8/Template/Template_Endpoint_RW.c ****   software without specific, written prior permission.
  20:LUFA/LUFA/Drivers/USB/Core/AVR8/Template/Template_Endpoint_RW.c **** 
  21:LUFA/LUFA/Drivers/USB/Core/AVR8/Template/Template_Endpoint_RW.c ****   The author disclaim all warranties with regard to this
  22:LUFA/LUFA/Drivers/USB/Core/AVR8/Template/Template_Endpoint_RW.c ****   software, including all implied warranties of merchantability
  23:LUFA/LUFA/Drivers/USB/Core/AVR8/Template/Template_Endpoint_RW.c ****   and fitness.  In no event shall the author be liable for any
  24:LUFA/LUFA/Drivers/USB/Core/AVR8/Template/Template_Endpoint_RW.c ****   special, indirect or consequential damages or any damages
  25:LUFA/LUFA/Drivers/USB/Core/AVR8/Template/Template_Endpoint_RW.c ****   whatsoever resulting from loss of use, data or profits, whether
  26:LUFA/LUFA/Drivers/USB/Core/AVR8/Template/Template_Endpoint_RW.c ****   in an action of contract, negligence or other tortious action,
  27:LUFA/LUFA/Drivers/USB/Core/AVR8/Template/Template_Endpoint_RW.c ****   arising out of or in connection with the use or performance of
  28:LUFA/LUFA/Drivers/USB/Core/AVR8/Template/Template_Endpoint_RW.c ****   this software.
  29:LUFA/LUFA/Drivers/USB/Core/AVR8/Template/Template_Endpoint_RW.c **** */
  30:LUFA/LUFA/Drivers/USB/Core/AVR8/Template/Template_Endpoint_RW.c **** 
  31:LUFA/LUFA/Drivers/USB/Core/AVR8/Template/Template_Endpoint_RW.c **** #if defined(TEMPLATE_FUNC_NAME)
  32:LUFA/LUFA/Drivers/USB/Core/AVR8/Template/Template_Endpoint_RW.c **** 
  33:LUFA/LUFA/Drivers/USB/Core/AVR8/Template/Template_Endpoint_RW.c **** uint8_t TEMPLATE_FUNC_NAME (TEMPLATE_BUFFER_TYPE const Buffer,
  34:LUFA/LUFA/Drivers/USB/Core/AVR8/Template/Template_Endpoint_RW.c ****                             uint16_t Length,
  35:LUFA/LUFA/Drivers/USB/Core/AVR8/Template/Template_Endpoint_RW.c ****                             uint16_t* const BytesProcessed)
  36:LUFA/LUFA/Drivers/USB/Core/AVR8/Template/Template_Endpoint_RW.c **** {
 377               		.loc 3 36 1 is_stmt 1 view -0
 378               		.cfi_startproc
 379               		.loc 3 36 1 is_stmt 0 view .LVU94
 380 0000 AF92      		push r10
 381               	.LCFI14:
 382               		.cfi_def_cfa_offset 3
 383               		.cfi_offset 10, -2
 384 0002 BF92      		push r11
 385               	.LCFI15:
 386               		.cfi_def_cfa_offset 4
 387               		.cfi_offset 11, -3
 388 0004 CF92      		push r12
 389               	.LCFI16:
 390               		.cfi_def_cfa_offset 5
 391               		.cfi_offset 12, -4
 392 0006 DF92      		push r13
 393               	.LCFI17:
 394               		.cfi_def_cfa_offset 6
 395               		.cfi_offset 13, -5
 396 0008 FF92      		push r15
 397               	.LCFI18:
 398               		.cfi_def_cfa_offset 7
 399               		.cfi_offset 15, -6
 400 000a 0F93      		push r16
 401               	.LCFI19:
 402               		.cfi_def_cfa_offset 8
 403               		.cfi_offset 16, -7
 404 000c 1F93      		push r17
 405               	.LCFI20:
 406               		.cfi_def_cfa_offset 9
 407               		.cfi_offset 17, -8
 408 000e CF93      		push r28
 409               	.LCFI21:
 410               		.cfi_def_cfa_offset 10
 411               		.cfi_offset 28, -9
 412 0010 DF93      		push r29
 413               	.LCFI22:
 414               		.cfi_def_cfa_offset 11
 415               		.cfi_offset 29, -10
 416               	/* prologue: function */
 417               	/* frame size = 0 */
 418               	/* stack size = 9 */
 419               	.L__stack_usage = 9
 420 0012 6C01      		movw r12,r24
 421 0014 EB01      		movw r28,r22
 422 0016 8A01      		movw r16,r20
  37:LUFA/LUFA/Drivers/USB/Core/AVR8/Template/Template_Endpoint_RW.c **** 	uint8_t* DataStream      = ((uint8_t*)Buffer + TEMPLATE_BUFFER_OFFSET(Length));
 423               		.loc 3 37 2 is_stmt 1 view .LVU95
 424               	.LVL30:
  38:LUFA/LUFA/Drivers/USB/Core/AVR8/Template/Template_Endpoint_RW.c **** 	uint16_t BytesInTransfer = 0;
 425               		.loc 3 38 2 view .LVU96
  39:LUFA/LUFA/Drivers/USB/Core/AVR8/Template/Template_Endpoint_RW.c **** 	uint8_t  ErrorCode;
 426               		.loc 3 39 2 view .LVU97
  40:LUFA/LUFA/Drivers/USB/Core/AVR8/Template/Template_Endpoint_RW.c **** 
  41:LUFA/LUFA/Drivers/USB/Core/AVR8/Template/Template_Endpoint_RW.c **** 	if ((ErrorCode = Endpoint_WaitUntilReady()))
 427               		.loc 3 41 2 view .LVU98
 428               		.loc 3 41 19 is_stmt 0 view .LVU99
 429 0018 0E94 0000 		call Endpoint_WaitUntilReady
 430               	.LVL31:
 431               		.loc 3 41 19 view .LVU100
 432 001c F82E      		mov r15,r24
 433               	.LVL32:
 434               		.loc 3 41 5 view .LVU101
 435 001e 8111      		cpse r24,__zero_reg__
 436 0020 00C0      		rjmp .L25
  42:LUFA/LUFA/Drivers/USB/Core/AVR8/Template/Template_Endpoint_RW.c **** 	  return ErrorCode;
  43:LUFA/LUFA/Drivers/USB/Core/AVR8/Template/Template_Endpoint_RW.c **** 
  44:LUFA/LUFA/Drivers/USB/Core/AVR8/Template/Template_Endpoint_RW.c **** 	if (BytesProcessed != NULL)
 437               		.loc 3 44 2 is_stmt 1 view .LVU102
 438               		.loc 3 44 5 is_stmt 0 view .LVU103
 439 0022 0115      		cp r16,__zero_reg__
 440 0024 1105      		cpc r17,__zero_reg__
 441 0026 01F0      		breq .L27
  45:LUFA/LUFA/Drivers/USB/Core/AVR8/Template/Template_Endpoint_RW.c **** 	{
  46:LUFA/LUFA/Drivers/USB/Core/AVR8/Template/Template_Endpoint_RW.c **** 		Length -= *BytesProcessed;
 442               		.loc 3 46 3 is_stmt 1 view .LVU104
 443               		.loc 3 46 13 is_stmt 0 view .LVU105
 444 0028 F801      		movw r30,r16
 445 002a 8081      		ld r24,Z
 446 002c 9181      		ldd r25,Z+1
 447               		.loc 3 46 10 view .LVU106
 448 002e C81B      		sub r28,r24
 449 0030 D90B      		sbc r29,r25
 450               	.LVL33:
  47:LUFA/LUFA/Drivers/USB/Core/AVR8/Template/Template_Endpoint_RW.c **** 		TEMPLATE_BUFFER_MOVE(DataStream, *BytesProcessed);
 451               		.loc 3 47 3 is_stmt 1 view .LVU107
 452 0032 C80E      		add r12,r24
 453 0034 D91E      		adc r13,r25
 454               	.LVL34:
 455               	.L27:
  36:LUFA/LUFA/Drivers/USB/Core/AVR8/Template/Template_Endpoint_RW.c **** 	uint8_t* DataStream      = ((uint8_t*)Buffer + TEMPLATE_BUFFER_OFFSET(Length));
 456               		.loc 3 36 1 is_stmt 0 view .LVU108
 457 0036 B12C      		mov r11,__zero_reg__
 458 0038 A12C      		mov r10,__zero_reg__
 459               	.LVL35:
 460               	.L28:
  48:LUFA/LUFA/Drivers/USB/Core/AVR8/Template/Template_Endpoint_RW.c **** 	}
  49:LUFA/LUFA/Drivers/USB/Core/AVR8/Template/Template_Endpoint_RW.c **** 
  50:LUFA/LUFA/Drivers/USB/Core/AVR8/Template/Template_Endpoint_RW.c **** 	while (Length)
 461               		.loc 3 50 8 is_stmt 1 view .LVU109
 462 003a 2097      		sbiw r28,0
 463 003c 01F0      		breq .L25
  51:LUFA/LUFA/Drivers/USB/Core/AVR8/Template/Template_Endpoint_RW.c **** 	{
  52:LUFA/LUFA/Drivers/USB/Core/AVR8/Template/Template_Endpoint_RW.c **** 		if (!(Endpoint_IsReadWriteAllowed()))
 464               		.loc 3 52 3 view .LVU110
 465               	.LBB268:
 466               	.LBI268:
 418:LUFA/LUFA/Drivers/USB/Core/AVR8/../AVR8/../AVR8/Endpoint_AVR8.h **** 			{
 467               		.loc 2 418 23 view .LVU111
 468               	.LBB269:
 420:LUFA/LUFA/Drivers/USB/Core/AVR8/../AVR8/../AVR8/Endpoint_AVR8.h **** 			}
 469               		.loc 2 420 5 view .LVU112
 420:LUFA/LUFA/Drivers/USB/Core/AVR8/../AVR8/../AVR8/Endpoint_AVR8.h **** 			}
 470               		.loc 2 420 14 is_stmt 0 view .LVU113
 471 003e 8091 E800 		lds r24,232
 472               	.LBE269:
 473               	.LBE268:
 474               		.loc 3 52 6 view .LVU114
 475 0042 85FD      		sbrc r24,5
 476 0044 00C0      		rjmp .L29
  53:LUFA/LUFA/Drivers/USB/Core/AVR8/Template/Template_Endpoint_RW.c **** 		{
  54:LUFA/LUFA/Drivers/USB/Core/AVR8/Template/Template_Endpoint_RW.c **** 			TEMPLATE_CLEAR_ENDPOINT();
 477               		.loc 3 54 4 is_stmt 1 view .LVU115
 478               	.LBB270:
 479               	.LBI270:
 513:LUFA/LUFA/Drivers/USB/Core/AVR8/../AVR8/../AVR8/Endpoint_AVR8.h **** 			{
 480               		.loc 2 513 23 view .LVU116
 481               	.LBB271:
 516:LUFA/LUFA/Drivers/USB/Core/AVR8/../AVR8/../AVR8/Endpoint_AVR8.h **** 				#else
 482               		.loc 2 516 6 view .LVU117
 516:LUFA/LUFA/Drivers/USB/Core/AVR8/../AVR8/../AVR8/Endpoint_AVR8.h **** 				#else
 483               		.loc 2 516 13 is_stmt 0 view .LVU118
 484 0046 8091 E800 		lds r24,232
 485 004a 8E77      		andi r24,lo8(126)
 486 004c 8093 E800 		sts 232,r24
 487               	.LBE271:
 488               	.LBE270:
  55:LUFA/LUFA/Drivers/USB/Core/AVR8/Template/Template_Endpoint_RW.c **** 
  56:LUFA/LUFA/Drivers/USB/Core/AVR8/Template/Template_Endpoint_RW.c **** 			#if !defined(INTERRUPT_CONTROL_ENDPOINT)
  57:LUFA/LUFA/Drivers/USB/Core/AVR8/Template/Template_Endpoint_RW.c **** 			USB_USBTask();
 489               		.loc 3 57 4 is_stmt 1 view .LVU119
 490 0050 0E94 0000 		call USB_USBTask
 491               	.LVL36:
  58:LUFA/LUFA/Drivers/USB/Core/AVR8/Template/Template_Endpoint_RW.c **** 			#endif
  59:LUFA/LUFA/Drivers/USB/Core/AVR8/Template/Template_Endpoint_RW.c **** 
  60:LUFA/LUFA/Drivers/USB/Core/AVR8/Template/Template_Endpoint_RW.c **** 			if (BytesProcessed != NULL)
 492               		.loc 3 60 4 view .LVU120
 493               		.loc 3 60 7 is_stmt 0 view .LVU121
 494 0054 0115      		cp r16,__zero_reg__
 495 0056 1105      		cpc r17,__zero_reg__
 496 0058 01F0      		breq .L30
  61:LUFA/LUFA/Drivers/USB/Core/AVR8/Template/Template_Endpoint_RW.c **** 			{
  62:LUFA/LUFA/Drivers/USB/Core/AVR8/Template/Template_Endpoint_RW.c **** 				*BytesProcessed += BytesInTransfer;
 497               		.loc 3 62 5 is_stmt 1 view .LVU122
 498               		.loc 3 62 21 is_stmt 0 view .LVU123
 499 005a F801      		movw r30,r16
 500 005c 8081      		ld r24,Z
 501 005e 9181      		ldd r25,Z+1
 502 0060 A80E      		add r10,r24
 503 0062 B91E      		adc r11,r25
 504               	.LVL37:
 505               		.loc 3 62 21 view .LVU124
 506 0064 B182      		std Z+1,r11
 507 0066 A082      		st Z,r10
  63:LUFA/LUFA/Drivers/USB/Core/AVR8/Template/Template_Endpoint_RW.c **** 				return ENDPOINT_RWSTREAM_IncompleteTransfer;
 508               		.loc 3 63 5 is_stmt 1 view .LVU125
 509               		.loc 3 63 12 is_stmt 0 view .LVU126
 510 0068 85E0      		ldi r24,lo8(5)
 511 006a F82E      		mov r15,r24
 512               	.L25:
  64:LUFA/LUFA/Drivers/USB/Core/AVR8/Template/Template_Endpoint_RW.c **** 			}
  65:LUFA/LUFA/Drivers/USB/Core/AVR8/Template/Template_Endpoint_RW.c **** 
  66:LUFA/LUFA/Drivers/USB/Core/AVR8/Template/Template_Endpoint_RW.c **** 			if ((ErrorCode = Endpoint_WaitUntilReady()))
  67:LUFA/LUFA/Drivers/USB/Core/AVR8/Template/Template_Endpoint_RW.c **** 			  return ErrorCode;
  68:LUFA/LUFA/Drivers/USB/Core/AVR8/Template/Template_Endpoint_RW.c **** 		}
  69:LUFA/LUFA/Drivers/USB/Core/AVR8/Template/Template_Endpoint_RW.c **** 		else
  70:LUFA/LUFA/Drivers/USB/Core/AVR8/Template/Template_Endpoint_RW.c **** 		{
  71:LUFA/LUFA/Drivers/USB/Core/AVR8/Template/Template_Endpoint_RW.c **** 			TEMPLATE_TRANSFER_BYTE(DataStream);
  72:LUFA/LUFA/Drivers/USB/Core/AVR8/Template/Template_Endpoint_RW.c **** 			TEMPLATE_BUFFER_MOVE(DataStream, 1);
  73:LUFA/LUFA/Drivers/USB/Core/AVR8/Template/Template_Endpoint_RW.c **** 			Length--;
  74:LUFA/LUFA/Drivers/USB/Core/AVR8/Template/Template_Endpoint_RW.c **** 			BytesInTransfer++;
  75:LUFA/LUFA/Drivers/USB/Core/AVR8/Template/Template_Endpoint_RW.c **** 		}
  76:LUFA/LUFA/Drivers/USB/Core/AVR8/Template/Template_Endpoint_RW.c **** 	}
  77:LUFA/LUFA/Drivers/USB/Core/AVR8/Template/Template_Endpoint_RW.c **** 
  78:LUFA/LUFA/Drivers/USB/Core/AVR8/Template/Template_Endpoint_RW.c **** 	return ENDPOINT_RWSTREAM_NoError;
  79:LUFA/LUFA/Drivers/USB/Core/AVR8/Template/Template_Endpoint_RW.c **** }
 513               		.loc 3 79 1 view .LVU127
 514 006c 8F2D      		mov r24,r15
 515               	/* epilogue start */
 516 006e DF91      		pop r29
 517 0070 CF91      		pop r28
 518               	.LVL38:
 519               		.loc 3 79 1 view .LVU128
 520 0072 1F91      		pop r17
 521 0074 0F91      		pop r16
 522               	.LVL39:
 523               		.loc 3 79 1 view .LVU129
 524 0076 FF90      		pop r15
 525 0078 DF90      		pop r13
 526 007a CF90      		pop r12
 527               	.LVL40:
 528               		.loc 3 79 1 view .LVU130
 529 007c BF90      		pop r11
 530 007e AF90      		pop r10
 531 0080 0895      		ret
 532               	.LVL41:
 533               	.L30:
  66:LUFA/LUFA/Drivers/USB/Core/AVR8/Template/Template_Endpoint_RW.c **** 			  return ErrorCode;
 534               		.loc 3 66 4 is_stmt 1 view .LVU131
  66:LUFA/LUFA/Drivers/USB/Core/AVR8/Template/Template_Endpoint_RW.c **** 			  return ErrorCode;
 535               		.loc 3 66 21 is_stmt 0 view .LVU132
 536 0082 0E94 0000 		call Endpoint_WaitUntilReady
 537               	.LVL42:
  66:LUFA/LUFA/Drivers/USB/Core/AVR8/Template/Template_Endpoint_RW.c **** 			  return ErrorCode;
 538               		.loc 3 66 7 view .LVU133
 539 0086 8823      		tst r24
 540 0088 01F0      		breq .L28
 541 008a F82E      		mov r15,r24
 542 008c 00C0      		rjmp .L25
 543               	.LVL43:
 544               	.L29:
  71:LUFA/LUFA/Drivers/USB/Core/AVR8/Template/Template_Endpoint_RW.c **** 			TEMPLATE_BUFFER_MOVE(DataStream, 1);
 545               		.loc 3 71 4 is_stmt 1 view .LVU134
 546 008e F601      		movw r30,r12
 547 0090 8191      		ld r24,Z+
 548 0092 6F01      		movw r12,r30
 549               	.LVL44:
 550               	.LBB272:
 551               	.LBI272:
 622:LUFA/LUFA/Drivers/USB/Core/AVR8/../AVR8/../AVR8/Endpoint_AVR8.h **** 			{
 552               		.loc 2 622 23 view .LVU135
 553               	.LBB273:
 624:LUFA/LUFA/Drivers/USB/Core/AVR8/../AVR8/../AVR8/Endpoint_AVR8.h **** 			}
 554               		.loc 2 624 5 view .LVU136
 624:LUFA/LUFA/Drivers/USB/Core/AVR8/../AVR8/../AVR8/Endpoint_AVR8.h **** 			}
 555               		.loc 2 624 12 is_stmt 0 view .LVU137
 556 0094 8093 F100 		sts 241,r24
 557               	.LVL45:
 624:LUFA/LUFA/Drivers/USB/Core/AVR8/../AVR8/../AVR8/Endpoint_AVR8.h **** 			}
 558               		.loc 2 624 12 view .LVU138
 559               	.LBE273:
 560               	.LBE272:
  72:LUFA/LUFA/Drivers/USB/Core/AVR8/Template/Template_Endpoint_RW.c **** 			Length--;
 561               		.loc 3 72 4 is_stmt 1 view .LVU139
  73:LUFA/LUFA/Drivers/USB/Core/AVR8/Template/Template_Endpoint_RW.c **** 			BytesInTransfer++;
 562               		.loc 3 73 4 view .LVU140
  73:LUFA/LUFA/Drivers/USB/Core/AVR8/Template/Template_Endpoint_RW.c **** 			BytesInTransfer++;
 563               		.loc 3 73 10 is_stmt 0 view .LVU141
 564 0098 2197      		sbiw r28,1
 565               	.LVL46:
  74:LUFA/LUFA/Drivers/USB/Core/AVR8/Template/Template_Endpoint_RW.c **** 		}
 566               		.loc 3 74 4 is_stmt 1 view .LVU142
  74:LUFA/LUFA/Drivers/USB/Core/AVR8/Template/Template_Endpoint_RW.c **** 		}
 567               		.loc 3 74 19 is_stmt 0 view .LVU143
 568 009a FFEF      		ldi r31,-1
 569 009c AF1A      		sub r10,r31
 570 009e BF0A      		sbc r11,r31
 571               	.LVL47:
  74:LUFA/LUFA/Drivers/USB/Core/AVR8/Template/Template_Endpoint_RW.c **** 		}
 572               		.loc 3 74 19 view .LVU144
 573 00a0 00C0      		rjmp .L28
 574               		.cfi_endproc
 575               	.LFE83:
 577               		.section	.text.Endpoint_Write_Stream_BE,"ax",@progbits
 578               	.global	Endpoint_Write_Stream_BE
 580               	Endpoint_Write_Stream_BE:
 581               	.LVL48:
 582               	.LFB84:
  36:LUFA/LUFA/Drivers/USB/Core/AVR8/Template/Template_Endpoint_RW.c **** 	uint8_t* DataStream      = ((uint8_t*)Buffer + TEMPLATE_BUFFER_OFFSET(Length));
 583               		.loc 3 36 1 is_stmt 1 view -0
 584               		.cfi_startproc
  36:LUFA/LUFA/Drivers/USB/Core/AVR8/Template/Template_Endpoint_RW.c **** 	uint8_t* DataStream      = ((uint8_t*)Buffer + TEMPLATE_BUFFER_OFFSET(Length));
 585               		.loc 3 36 1 is_stmt 0 view .LVU146
 586 0000 AF92      		push r10
 587               	.LCFI23:
 588               		.cfi_def_cfa_offset 3
 589               		.cfi_offset 10, -2
 590 0002 BF92      		push r11
 591               	.LCFI24:
 592               		.cfi_def_cfa_offset 4
 593               		.cfi_offset 11, -3
 594 0004 DF92      		push r13
 595               	.LCFI25:
 596               		.cfi_def_cfa_offset 5
 597               		.cfi_offset 13, -4
 598 0006 EF92      		push r14
 599               	.LCFI26:
 600               		.cfi_def_cfa_offset 6
 601               		.cfi_offset 14, -5
 602 0008 FF92      		push r15
 603               	.LCFI27:
 604               		.cfi_def_cfa_offset 7
 605               		.cfi_offset 15, -6
 606 000a 0F93      		push r16
 607               	.LCFI28:
 608               		.cfi_def_cfa_offset 8
 609               		.cfi_offset 16, -7
 610 000c 1F93      		push r17
 611               	.LCFI29:
 612               		.cfi_def_cfa_offset 9
 613               		.cfi_offset 17, -8
 614 000e CF93      		push r28
 615               	.LCFI30:
 616               		.cfi_def_cfa_offset 10
 617               		.cfi_offset 28, -9
 618 0010 DF93      		push r29
 619               	.LCFI31:
 620               		.cfi_def_cfa_offset 11
 621               		.cfi_offset 29, -10
 622               	/* prologue: function */
 623               	/* frame size = 0 */
 624               	/* stack size = 9 */
 625               	.L__stack_usage = 9
 626 0012 EC01      		movw r28,r24
 627 0014 8B01      		movw r16,r22
 628 0016 7A01      		movw r14,r20
  37:LUFA/LUFA/Drivers/USB/Core/AVR8/Template/Template_Endpoint_RW.c **** 	uint16_t BytesInTransfer = 0;
 629               		.loc 3 37 2 is_stmt 1 view .LVU147
 630               	.LVL49:
  38:LUFA/LUFA/Drivers/USB/Core/AVR8/Template/Template_Endpoint_RW.c **** 	uint8_t  ErrorCode;
 631               		.loc 3 38 2 view .LVU148
  39:LUFA/LUFA/Drivers/USB/Core/AVR8/Template/Template_Endpoint_RW.c **** 
 632               		.loc 3 39 2 view .LVU149
  41:LUFA/LUFA/Drivers/USB/Core/AVR8/Template/Template_Endpoint_RW.c **** 	  return ErrorCode;
 633               		.loc 3 41 2 view .LVU150
  41:LUFA/LUFA/Drivers/USB/Core/AVR8/Template/Template_Endpoint_RW.c **** 	  return ErrorCode;
 634               		.loc 3 41 19 is_stmt 0 view .LVU151
 635 0018 0E94 0000 		call Endpoint_WaitUntilReady
 636               	.LVL50:
  41:LUFA/LUFA/Drivers/USB/Core/AVR8/Template/Template_Endpoint_RW.c **** 	  return ErrorCode;
 637               		.loc 3 41 19 view .LVU152
 638 001c D82E      		mov r13,r24
 639               	.LVL51:
  41:LUFA/LUFA/Drivers/USB/Core/AVR8/Template/Template_Endpoint_RW.c **** 	  return ErrorCode;
 640               		.loc 3 41 5 view .LVU153
 641 001e 8111      		cpse r24,__zero_reg__
 642 0020 00C0      		rjmp .L37
  37:LUFA/LUFA/Drivers/USB/Core/AVR8/Template/Template_Endpoint_RW.c **** 	uint16_t BytesInTransfer = 0;
 643               		.loc 3 37 47 view .LVU154
 644 0022 C801      		movw r24,r16
 645 0024 0197      		sbiw r24,1
 646               	.LVL52:
  37:LUFA/LUFA/Drivers/USB/Core/AVR8/Template/Template_Endpoint_RW.c **** 	uint16_t BytesInTransfer = 0;
 647               		.loc 3 37 11 view .LVU155
 648 0026 C80F      		add r28,r24
 649 0028 D91F      		adc r29,r25
 650               	.LVL53:
  44:LUFA/LUFA/Drivers/USB/Core/AVR8/Template/Template_Endpoint_RW.c **** 	{
 651               		.loc 3 44 2 is_stmt 1 view .LVU156
  44:LUFA/LUFA/Drivers/USB/Core/AVR8/Template/Template_Endpoint_RW.c **** 	{
 652               		.loc 3 44 5 is_stmt 0 view .LVU157
 653 002a E114      		cp r14,__zero_reg__
 654 002c F104      		cpc r15,__zero_reg__
 655 002e 01F0      		breq .L39
  46:LUFA/LUFA/Drivers/USB/Core/AVR8/Template/Template_Endpoint_RW.c **** 		TEMPLATE_BUFFER_MOVE(DataStream, *BytesProcessed);
 656               		.loc 3 46 3 is_stmt 1 view .LVU158
  46:LUFA/LUFA/Drivers/USB/Core/AVR8/Template/Template_Endpoint_RW.c **** 		TEMPLATE_BUFFER_MOVE(DataStream, *BytesProcessed);
 657               		.loc 3 46 13 is_stmt 0 view .LVU159
 658 0030 F701      		movw r30,r14
 659 0032 8081      		ld r24,Z
 660 0034 9181      		ldd r25,Z+1
 661               	.LVL54:
  46:LUFA/LUFA/Drivers/USB/Core/AVR8/Template/Template_Endpoint_RW.c **** 		TEMPLATE_BUFFER_MOVE(DataStream, *BytesProcessed);
 662               		.loc 3 46 10 view .LVU160
 663 0036 081B      		sub r16,r24
 664 0038 190B      		sbc r17,r25
 665               	.LVL55:
  47:LUFA/LUFA/Drivers/USB/Core/AVR8/Template/Template_Endpoint_RW.c **** 	}
 666               		.loc 3 47 3 is_stmt 1 view .LVU161
 667 003a C81B      		sub r28,r24
 668 003c D90B      		sbc r29,r25
 669               	.LVL56:
 670               	.L39:
  36:LUFA/LUFA/Drivers/USB/Core/AVR8/Template/Template_Endpoint_RW.c **** 	uint8_t* DataStream      = ((uint8_t*)Buffer + TEMPLATE_BUFFER_OFFSET(Length));
 671               		.loc 3 36 1 is_stmt 0 view .LVU162
 672 003e B12C      		mov r11,__zero_reg__
 673 0040 A12C      		mov r10,__zero_reg__
 674               	.LVL57:
 675               	.L40:
  50:LUFA/LUFA/Drivers/USB/Core/AVR8/Template/Template_Endpoint_RW.c **** 	{
 676               		.loc 3 50 8 is_stmt 1 view .LVU163
 677 0042 0115      		cp r16,__zero_reg__
 678 0044 1105      		cpc r17,__zero_reg__
 679 0046 01F0      		breq .L37
  52:LUFA/LUFA/Drivers/USB/Core/AVR8/Template/Template_Endpoint_RW.c **** 		{
 680               		.loc 3 52 3 view .LVU164
 681               	.LBB274:
 682               	.LBI274:
 418:LUFA/LUFA/Drivers/USB/Core/AVR8/../AVR8/../AVR8/Endpoint_AVR8.h **** 			{
 683               		.loc 2 418 23 view .LVU165
 684               	.LBB275:
 420:LUFA/LUFA/Drivers/USB/Core/AVR8/../AVR8/../AVR8/Endpoint_AVR8.h **** 			}
 685               		.loc 2 420 5 view .LVU166
 420:LUFA/LUFA/Drivers/USB/Core/AVR8/../AVR8/../AVR8/Endpoint_AVR8.h **** 			}
 686               		.loc 2 420 14 is_stmt 0 view .LVU167
 687 0048 8091 E800 		lds r24,232
 688               	.LBE275:
 689               	.LBE274:
  52:LUFA/LUFA/Drivers/USB/Core/AVR8/Template/Template_Endpoint_RW.c **** 		{
 690               		.loc 3 52 6 view .LVU168
 691 004c 85FD      		sbrc r24,5
 692 004e 00C0      		rjmp .L41
  54:LUFA/LUFA/Drivers/USB/Core/AVR8/Template/Template_Endpoint_RW.c **** 
 693               		.loc 3 54 4 is_stmt 1 view .LVU169
 694               	.LBB276:
 695               	.LBI276:
 513:LUFA/LUFA/Drivers/USB/Core/AVR8/../AVR8/../AVR8/Endpoint_AVR8.h **** 			{
 696               		.loc 2 513 23 view .LVU170
 697               	.LBB277:
 516:LUFA/LUFA/Drivers/USB/Core/AVR8/../AVR8/../AVR8/Endpoint_AVR8.h **** 				#else
 698               		.loc 2 516 6 view .LVU171
 516:LUFA/LUFA/Drivers/USB/Core/AVR8/../AVR8/../AVR8/Endpoint_AVR8.h **** 				#else
 699               		.loc 2 516 13 is_stmt 0 view .LVU172
 700 0050 8091 E800 		lds r24,232
 701 0054 8E77      		andi r24,lo8(126)
 702 0056 8093 E800 		sts 232,r24
 703               	.LBE277:
 704               	.LBE276:
  57:LUFA/LUFA/Drivers/USB/Core/AVR8/Template/Template_Endpoint_RW.c **** 			#endif
 705               		.loc 3 57 4 is_stmt 1 view .LVU173
 706 005a 0E94 0000 		call USB_USBTask
 707               	.LVL58:
  60:LUFA/LUFA/Drivers/USB/Core/AVR8/Template/Template_Endpoint_RW.c **** 			{
 708               		.loc 3 60 4 view .LVU174
  60:LUFA/LUFA/Drivers/USB/Core/AVR8/Template/Template_Endpoint_RW.c **** 			{
 709               		.loc 3 60 7 is_stmt 0 view .LVU175
 710 005e E114      		cp r14,__zero_reg__
 711 0060 F104      		cpc r15,__zero_reg__
 712 0062 01F0      		breq .L42
  62:LUFA/LUFA/Drivers/USB/Core/AVR8/Template/Template_Endpoint_RW.c **** 				return ENDPOINT_RWSTREAM_IncompleteTransfer;
 713               		.loc 3 62 5 is_stmt 1 view .LVU176
  62:LUFA/LUFA/Drivers/USB/Core/AVR8/Template/Template_Endpoint_RW.c **** 				return ENDPOINT_RWSTREAM_IncompleteTransfer;
 714               		.loc 3 62 21 is_stmt 0 view .LVU177
 715 0064 F701      		movw r30,r14
 716 0066 8081      		ld r24,Z
 717 0068 9181      		ldd r25,Z+1
 718 006a A80E      		add r10,r24
 719 006c B91E      		adc r11,r25
 720               	.LVL59:
  62:LUFA/LUFA/Drivers/USB/Core/AVR8/Template/Template_Endpoint_RW.c **** 				return ENDPOINT_RWSTREAM_IncompleteTransfer;
 721               		.loc 3 62 21 view .LVU178
 722 006e B182      		std Z+1,r11
 723 0070 A082      		st Z,r10
  63:LUFA/LUFA/Drivers/USB/Core/AVR8/Template/Template_Endpoint_RW.c **** 			}
 724               		.loc 3 63 5 is_stmt 1 view .LVU179
  63:LUFA/LUFA/Drivers/USB/Core/AVR8/Template/Template_Endpoint_RW.c **** 			}
 725               		.loc 3 63 12 is_stmt 0 view .LVU180
 726 0072 85E0      		ldi r24,lo8(5)
 727 0074 D82E      		mov r13,r24
 728               	.LVL60:
 729               	.L37:
 730               		.loc 3 79 1 view .LVU181
 731 0076 8D2D      		mov r24,r13
 732               	/* epilogue start */
 733 0078 DF91      		pop r29
 734 007a CF91      		pop r28
 735 007c 1F91      		pop r17
 736 007e 0F91      		pop r16
 737               	.LVL61:
 738               		.loc 3 79 1 view .LVU182
 739 0080 FF90      		pop r15
 740 0082 EF90      		pop r14
 741               	.LVL62:
 742               		.loc 3 79 1 view .LVU183
 743 0084 DF90      		pop r13
 744 0086 BF90      		pop r11
 745 0088 AF90      		pop r10
 746 008a 0895      		ret
 747               	.LVL63:
 748               	.L42:
  66:LUFA/LUFA/Drivers/USB/Core/AVR8/Template/Template_Endpoint_RW.c **** 			  return ErrorCode;
 749               		.loc 3 66 4 is_stmt 1 view .LVU184
  66:LUFA/LUFA/Drivers/USB/Core/AVR8/Template/Template_Endpoint_RW.c **** 			  return ErrorCode;
 750               		.loc 3 66 21 is_stmt 0 view .LVU185
 751 008c 0E94 0000 		call Endpoint_WaitUntilReady
 752               	.LVL64:
  66:LUFA/LUFA/Drivers/USB/Core/AVR8/Template/Template_Endpoint_RW.c **** 			  return ErrorCode;
 753               		.loc 3 66 7 view .LVU186
 754 0090 8823      		tst r24
 755 0092 01F0      		breq .L40
 756 0094 D82E      		mov r13,r24
 757 0096 00C0      		rjmp .L37
 758               	.LVL65:
 759               	.L41:
  71:LUFA/LUFA/Drivers/USB/Core/AVR8/Template/Template_Endpoint_RW.c **** 			TEMPLATE_BUFFER_MOVE(DataStream, 1);
 760               		.loc 3 71 4 is_stmt 1 view .LVU187
 761 0098 8881      		ld r24,Y
 762               	.LVL66:
 763               	.LBB278:
 764               	.LBI278:
 622:LUFA/LUFA/Drivers/USB/Core/AVR8/../AVR8/../AVR8/Endpoint_AVR8.h **** 			{
 765               		.loc 2 622 23 view .LVU188
 766               	.LBB279:
 624:LUFA/LUFA/Drivers/USB/Core/AVR8/../AVR8/../AVR8/Endpoint_AVR8.h **** 			}
 767               		.loc 2 624 5 view .LVU189
 624:LUFA/LUFA/Drivers/USB/Core/AVR8/../AVR8/../AVR8/Endpoint_AVR8.h **** 			}
 768               		.loc 2 624 12 is_stmt 0 view .LVU190
 769 009a 8093 F100 		sts 241,r24
 770               	.LVL67:
 624:LUFA/LUFA/Drivers/USB/Core/AVR8/../AVR8/../AVR8/Endpoint_AVR8.h **** 			}
 771               		.loc 2 624 12 view .LVU191
 772               	.LBE279:
 773               	.LBE278:
  72:LUFA/LUFA/Drivers/USB/Core/AVR8/Template/Template_Endpoint_RW.c **** 			Length--;
 774               		.loc 3 72 4 is_stmt 1 view .LVU192
 775 009e 2197      		sbiw r28,1
 776               	.LVL68:
  73:LUFA/LUFA/Drivers/USB/Core/AVR8/Template/Template_Endpoint_RW.c **** 			BytesInTransfer++;
 777               		.loc 3 73 4 view .LVU193
  73:LUFA/LUFA/Drivers/USB/Core/AVR8/Template/Template_Endpoint_RW.c **** 			BytesInTransfer++;
 778               		.loc 3 73 10 is_stmt 0 view .LVU194
 779 00a0 0150      		subi r16,1
 780 00a2 1109      		sbc r17,__zero_reg__
 781               	.LVL69:
  74:LUFA/LUFA/Drivers/USB/Core/AVR8/Template/Template_Endpoint_RW.c **** 		}
 782               		.loc 3 74 4 is_stmt 1 view .LVU195
  74:LUFA/LUFA/Drivers/USB/Core/AVR8/Template/Template_Endpoint_RW.c **** 		}
 783               		.loc 3 74 19 is_stmt 0 view .LVU196
 784 00a4 FFEF      		ldi r31,-1
 785 00a6 AF1A      		sub r10,r31
 786 00a8 BF0A      		sbc r11,r31
 787               	.LVL70:
  74:LUFA/LUFA/Drivers/USB/Core/AVR8/Template/Template_Endpoint_RW.c **** 		}
 788               		.loc 3 74 19 view .LVU197
 789 00aa 00C0      		rjmp .L40
 790               		.cfi_endproc
 791               	.LFE84:
 793               		.section	.text.Endpoint_Read_Stream_LE,"ax",@progbits
 794               	.global	Endpoint_Read_Stream_LE
 796               	Endpoint_Read_Stream_LE:
 797               	.LVL71:
 798               	.LFB85:
  36:LUFA/LUFA/Drivers/USB/Core/AVR8/Template/Template_Endpoint_RW.c **** 	uint8_t* DataStream      = ((uint8_t*)Buffer + TEMPLATE_BUFFER_OFFSET(Length));
 799               		.loc 3 36 1 is_stmt 1 view -0
 800               		.cfi_startproc
  36:LUFA/LUFA/Drivers/USB/Core/AVR8/Template/Template_Endpoint_RW.c **** 	uint8_t* DataStream      = ((uint8_t*)Buffer + TEMPLATE_BUFFER_OFFSET(Length));
 801               		.loc 3 36 1 is_stmt 0 view .LVU199
 802 0000 AF92      		push r10
 803               	.LCFI32:
 804               		.cfi_def_cfa_offset 3
 805               		.cfi_offset 10, -2
 806 0002 BF92      		push r11
 807               	.LCFI33:
 808               		.cfi_def_cfa_offset 4
 809               		.cfi_offset 11, -3
 810 0004 CF92      		push r12
 811               	.LCFI34:
 812               		.cfi_def_cfa_offset 5
 813               		.cfi_offset 12, -4
 814 0006 DF92      		push r13
 815               	.LCFI35:
 816               		.cfi_def_cfa_offset 6
 817               		.cfi_offset 13, -5
 818 0008 FF92      		push r15
 819               	.LCFI36:
 820               		.cfi_def_cfa_offset 7
 821               		.cfi_offset 15, -6
 822 000a 0F93      		push r16
 823               	.LCFI37:
 824               		.cfi_def_cfa_offset 8
 825               		.cfi_offset 16, -7
 826 000c 1F93      		push r17
 827               	.LCFI38:
 828               		.cfi_def_cfa_offset 9
 829               		.cfi_offset 17, -8
 830 000e CF93      		push r28
 831               	.LCFI39:
 832               		.cfi_def_cfa_offset 10
 833               		.cfi_offset 28, -9
 834 0010 DF93      		push r29
 835               	.LCFI40:
 836               		.cfi_def_cfa_offset 11
 837               		.cfi_offset 29, -10
 838               	/* prologue: function */
 839               	/* frame size = 0 */
 840               	/* stack size = 9 */
 841               	.L__stack_usage = 9
 842 0012 6C01      		movw r12,r24
 843 0014 EB01      		movw r28,r22
 844 0016 8A01      		movw r16,r20
  37:LUFA/LUFA/Drivers/USB/Core/AVR8/Template/Template_Endpoint_RW.c **** 	uint16_t BytesInTransfer = 0;
 845               		.loc 3 37 2 is_stmt 1 view .LVU200
 846               	.LVL72:
  38:LUFA/LUFA/Drivers/USB/Core/AVR8/Template/Template_Endpoint_RW.c **** 	uint8_t  ErrorCode;
 847               		.loc 3 38 2 view .LVU201
  39:LUFA/LUFA/Drivers/USB/Core/AVR8/Template/Template_Endpoint_RW.c **** 
 848               		.loc 3 39 2 view .LVU202
  41:LUFA/LUFA/Drivers/USB/Core/AVR8/Template/Template_Endpoint_RW.c **** 	  return ErrorCode;
 849               		.loc 3 41 2 view .LVU203
  41:LUFA/LUFA/Drivers/USB/Core/AVR8/Template/Template_Endpoint_RW.c **** 	  return ErrorCode;
 850               		.loc 3 41 19 is_stmt 0 view .LVU204
 851 0018 0E94 0000 		call Endpoint_WaitUntilReady
 852               	.LVL73:
  41:LUFA/LUFA/Drivers/USB/Core/AVR8/Template/Template_Endpoint_RW.c **** 	  return ErrorCode;
 853               		.loc 3 41 19 view .LVU205
 854 001c F82E      		mov r15,r24
 855               	.LVL74:
  41:LUFA/LUFA/Drivers/USB/Core/AVR8/Template/Template_Endpoint_RW.c **** 	  return ErrorCode;
 856               		.loc 3 41 5 view .LVU206
 857 001e 8111      		cpse r24,__zero_reg__
 858 0020 00C0      		rjmp .L49
  44:LUFA/LUFA/Drivers/USB/Core/AVR8/Template/Template_Endpoint_RW.c **** 	{
 859               		.loc 3 44 2 is_stmt 1 view .LVU207
  44:LUFA/LUFA/Drivers/USB/Core/AVR8/Template/Template_Endpoint_RW.c **** 	{
 860               		.loc 3 44 5 is_stmt 0 view .LVU208
 861 0022 0115      		cp r16,__zero_reg__
 862 0024 1105      		cpc r17,__zero_reg__
 863 0026 01F0      		breq .L51
  46:LUFA/LUFA/Drivers/USB/Core/AVR8/Template/Template_Endpoint_RW.c **** 		TEMPLATE_BUFFER_MOVE(DataStream, *BytesProcessed);
 864               		.loc 3 46 3 is_stmt 1 view .LVU209
  46:LUFA/LUFA/Drivers/USB/Core/AVR8/Template/Template_Endpoint_RW.c **** 		TEMPLATE_BUFFER_MOVE(DataStream, *BytesProcessed);
 865               		.loc 3 46 13 is_stmt 0 view .LVU210
 866 0028 F801      		movw r30,r16
 867 002a 8081      		ld r24,Z
 868 002c 9181      		ldd r25,Z+1
  46:LUFA/LUFA/Drivers/USB/Core/AVR8/Template/Template_Endpoint_RW.c **** 		TEMPLATE_BUFFER_MOVE(DataStream, *BytesProcessed);
 869               		.loc 3 46 10 view .LVU211
 870 002e C81B      		sub r28,r24
 871 0030 D90B      		sbc r29,r25
 872               	.LVL75:
  47:LUFA/LUFA/Drivers/USB/Core/AVR8/Template/Template_Endpoint_RW.c **** 	}
 873               		.loc 3 47 3 is_stmt 1 view .LVU212
 874 0032 C80E      		add r12,r24
 875 0034 D91E      		adc r13,r25
 876               	.LVL76:
 877               	.L51:
  36:LUFA/LUFA/Drivers/USB/Core/AVR8/Template/Template_Endpoint_RW.c **** 	uint8_t* DataStream      = ((uint8_t*)Buffer + TEMPLATE_BUFFER_OFFSET(Length));
 878               		.loc 3 36 1 is_stmt 0 view .LVU213
 879 0036 B12C      		mov r11,__zero_reg__
 880 0038 A12C      		mov r10,__zero_reg__
 881               	.LVL77:
 882               	.L52:
  50:LUFA/LUFA/Drivers/USB/Core/AVR8/Template/Template_Endpoint_RW.c **** 	{
 883               		.loc 3 50 8 is_stmt 1 view .LVU214
 884 003a 2097      		sbiw r28,0
 885 003c 01F0      		breq .L49
  52:LUFA/LUFA/Drivers/USB/Core/AVR8/Template/Template_Endpoint_RW.c **** 		{
 886               		.loc 3 52 3 view .LVU215
 887               	.LBB280:
 888               	.LBI280:
 418:LUFA/LUFA/Drivers/USB/Core/AVR8/../AVR8/../AVR8/Endpoint_AVR8.h **** 			{
 889               		.loc 2 418 23 view .LVU216
 890               	.LBB281:
 420:LUFA/LUFA/Drivers/USB/Core/AVR8/../AVR8/../AVR8/Endpoint_AVR8.h **** 			}
 891               		.loc 2 420 5 view .LVU217
 420:LUFA/LUFA/Drivers/USB/Core/AVR8/../AVR8/../AVR8/Endpoint_AVR8.h **** 			}
 892               		.loc 2 420 14 is_stmt 0 view .LVU218
 893 003e 8091 E800 		lds r24,232
 894               	.LBE281:
 895               	.LBE280:
  52:LUFA/LUFA/Drivers/USB/Core/AVR8/Template/Template_Endpoint_RW.c **** 		{
 896               		.loc 3 52 6 view .LVU219
 897 0042 85FD      		sbrc r24,5
 898 0044 00C0      		rjmp .L53
  54:LUFA/LUFA/Drivers/USB/Core/AVR8/Template/Template_Endpoint_RW.c **** 
 899               		.loc 3 54 4 is_stmt 1 view .LVU220
 900               	.LBB282:
 901               	.LBI282:
 528:LUFA/LUFA/Drivers/USB/Core/AVR8/../AVR8/../AVR8/Endpoint_AVR8.h **** 			{
 902               		.loc 2 528 23 view .LVU221
 903               	.LBB283:
 531:LUFA/LUFA/Drivers/USB/Core/AVR8/../AVR8/../AVR8/Endpoint_AVR8.h **** 				#else
 904               		.loc 2 531 6 view .LVU222
 531:LUFA/LUFA/Drivers/USB/Core/AVR8/../AVR8/../AVR8/Endpoint_AVR8.h **** 				#else
 905               		.loc 2 531 13 is_stmt 0 view .LVU223
 906 0046 8091 E800 		lds r24,232
 907 004a 8B77      		andi r24,lo8(123)
 908 004c 8093 E800 		sts 232,r24
 909               	.LBE283:
 910               	.LBE282:
  57:LUFA/LUFA/Drivers/USB/Core/AVR8/Template/Template_Endpoint_RW.c **** 			#endif
 911               		.loc 3 57 4 is_stmt 1 view .LVU224
 912 0050 0E94 0000 		call USB_USBTask
 913               	.LVL78:
  60:LUFA/LUFA/Drivers/USB/Core/AVR8/Template/Template_Endpoint_RW.c **** 			{
 914               		.loc 3 60 4 view .LVU225
  60:LUFA/LUFA/Drivers/USB/Core/AVR8/Template/Template_Endpoint_RW.c **** 			{
 915               		.loc 3 60 7 is_stmt 0 view .LVU226
 916 0054 0115      		cp r16,__zero_reg__
 917 0056 1105      		cpc r17,__zero_reg__
 918 0058 01F0      		breq .L54
  62:LUFA/LUFA/Drivers/USB/Core/AVR8/Template/Template_Endpoint_RW.c **** 				return ENDPOINT_RWSTREAM_IncompleteTransfer;
 919               		.loc 3 62 5 is_stmt 1 view .LVU227
  62:LUFA/LUFA/Drivers/USB/Core/AVR8/Template/Template_Endpoint_RW.c **** 				return ENDPOINT_RWSTREAM_IncompleteTransfer;
 920               		.loc 3 62 21 is_stmt 0 view .LVU228
 921 005a F801      		movw r30,r16
 922 005c 8081      		ld r24,Z
 923 005e 9181      		ldd r25,Z+1
 924 0060 A80E      		add r10,r24
 925 0062 B91E      		adc r11,r25
 926               	.LVL79:
  62:LUFA/LUFA/Drivers/USB/Core/AVR8/Template/Template_Endpoint_RW.c **** 				return ENDPOINT_RWSTREAM_IncompleteTransfer;
 927               		.loc 3 62 21 view .LVU229
 928 0064 B182      		std Z+1,r11
 929 0066 A082      		st Z,r10
  63:LUFA/LUFA/Drivers/USB/Core/AVR8/Template/Template_Endpoint_RW.c **** 			}
 930               		.loc 3 63 5 is_stmt 1 view .LVU230
  63:LUFA/LUFA/Drivers/USB/Core/AVR8/Template/Template_Endpoint_RW.c **** 			}
 931               		.loc 3 63 12 is_stmt 0 view .LVU231
 932 0068 85E0      		ldi r24,lo8(5)
 933 006a F82E      		mov r15,r24
 934               	.L49:
 935               		.loc 3 79 1 view .LVU232
 936 006c 8F2D      		mov r24,r15
 937               	/* epilogue start */
 938 006e DF91      		pop r29
 939 0070 CF91      		pop r28
 940               	.LVL80:
 941               		.loc 3 79 1 view .LVU233
 942 0072 1F91      		pop r17
 943 0074 0F91      		pop r16
 944               	.LVL81:
 945               		.loc 3 79 1 view .LVU234
 946 0076 FF90      		pop r15
 947 0078 DF90      		pop r13
 948 007a CF90      		pop r12
 949               	.LVL82:
 950               		.loc 3 79 1 view .LVU235
 951 007c BF90      		pop r11
 952 007e AF90      		pop r10
 953 0080 0895      		ret
 954               	.LVL83:
 955               	.L54:
  66:LUFA/LUFA/Drivers/USB/Core/AVR8/Template/Template_Endpoint_RW.c **** 			  return ErrorCode;
 956               		.loc 3 66 4 is_stmt 1 view .LVU236
  66:LUFA/LUFA/Drivers/USB/Core/AVR8/Template/Template_Endpoint_RW.c **** 			  return ErrorCode;
 957               		.loc 3 66 21 is_stmt 0 view .LVU237
 958 0082 0E94 0000 		call Endpoint_WaitUntilReady
 959               	.LVL84:
  66:LUFA/LUFA/Drivers/USB/Core/AVR8/Template/Template_Endpoint_RW.c **** 			  return ErrorCode;
 960               		.loc 3 66 7 view .LVU238
 961 0086 8823      		tst r24
 962 0088 01F0      		breq .L52
 963 008a F82E      		mov r15,r24
 964 008c 00C0      		rjmp .L49
 965               	.LVL85:
 966               	.L53:
  71:LUFA/LUFA/Drivers/USB/Core/AVR8/Template/Template_Endpoint_RW.c **** 			TEMPLATE_BUFFER_MOVE(DataStream, 1);
 967               		.loc 3 71 4 is_stmt 1 view .LVU239
 968               	.LBB284:
 969               	.LBI284:
 610:LUFA/LUFA/Drivers/USB/Core/AVR8/../AVR8/../AVR8/Endpoint_AVR8.h **** 			{
 970               		.loc 2 610 26 view .LVU240
 971               	.LBB285:
 612:LUFA/LUFA/Drivers/USB/Core/AVR8/../AVR8/../AVR8/Endpoint_AVR8.h **** 			}
 972               		.loc 2 612 5 view .LVU241
 612:LUFA/LUFA/Drivers/USB/Core/AVR8/../AVR8/../AVR8/Endpoint_AVR8.h **** 			}
 973               		.loc 2 612 12 is_stmt 0 view .LVU242
 974 008e 8091 F100 		lds r24,241
 975               	.LBE285:
 976               	.LBE284:
  71:LUFA/LUFA/Drivers/USB/Core/AVR8/Template/Template_Endpoint_RW.c **** 			TEMPLATE_BUFFER_MOVE(DataStream, 1);
 977               		.loc 3 71 4 view .LVU243
 978 0092 F601      		movw r30,r12
 979 0094 8193      		st Z+,r24
 980 0096 6F01      		movw r12,r30
 981               	.LVL86:
  72:LUFA/LUFA/Drivers/USB/Core/AVR8/Template/Template_Endpoint_RW.c **** 			Length--;
 982               		.loc 3 72 4 is_stmt 1 view .LVU244
  73:LUFA/LUFA/Drivers/USB/Core/AVR8/Template/Template_Endpoint_RW.c **** 			BytesInTransfer++;
 983               		.loc 3 73 4 view .LVU245
  73:LUFA/LUFA/Drivers/USB/Core/AVR8/Template/Template_Endpoint_RW.c **** 			BytesInTransfer++;
 984               		.loc 3 73 10 is_stmt 0 view .LVU246
 985 0098 2197      		sbiw r28,1
 986               	.LVL87:
  74:LUFA/LUFA/Drivers/USB/Core/AVR8/Template/Template_Endpoint_RW.c **** 		}
 987               		.loc 3 74 4 is_stmt 1 view .LVU247
  74:LUFA/LUFA/Drivers/USB/Core/AVR8/Template/Template_Endpoint_RW.c **** 		}
 988               		.loc 3 74 19 is_stmt 0 view .LVU248
 989 009a FFEF      		ldi r31,-1
 990 009c AF1A      		sub r10,r31
 991 009e BF0A      		sbc r11,r31
 992               	.LVL88:
  74:LUFA/LUFA/Drivers/USB/Core/AVR8/Template/Template_Endpoint_RW.c **** 		}
 993               		.loc 3 74 19 view .LVU249
 994 00a0 00C0      		rjmp .L52
 995               		.cfi_endproc
 996               	.LFE85:
 998               		.section	.text.Endpoint_Read_Stream_BE,"ax",@progbits
 999               	.global	Endpoint_Read_Stream_BE
 1001               	Endpoint_Read_Stream_BE:
 1002               	.LVL89:
 1003               	.LFB86:
  36:LUFA/LUFA/Drivers/USB/Core/AVR8/Template/Template_Endpoint_RW.c **** 	uint8_t* DataStream      = ((uint8_t*)Buffer + TEMPLATE_BUFFER_OFFSET(Length));
 1004               		.loc 3 36 1 is_stmt 1 view -0
 1005               		.cfi_startproc
  36:LUFA/LUFA/Drivers/USB/Core/AVR8/Template/Template_Endpoint_RW.c **** 	uint8_t* DataStream      = ((uint8_t*)Buffer + TEMPLATE_BUFFER_OFFSET(Length));
 1006               		.loc 3 36 1 is_stmt 0 view .LVU251
 1007 0000 AF92      		push r10
 1008               	.LCFI41:
 1009               		.cfi_def_cfa_offset 3
 1010               		.cfi_offset 10, -2
 1011 0002 BF92      		push r11
 1012               	.LCFI42:
 1013               		.cfi_def_cfa_offset 4
 1014               		.cfi_offset 11, -3
 1015 0004 DF92      		push r13
 1016               	.LCFI43:
 1017               		.cfi_def_cfa_offset 5
 1018               		.cfi_offset 13, -4
 1019 0006 EF92      		push r14
 1020               	.LCFI44:
 1021               		.cfi_def_cfa_offset 6
 1022               		.cfi_offset 14, -5
 1023 0008 FF92      		push r15
 1024               	.LCFI45:
 1025               		.cfi_def_cfa_offset 7
 1026               		.cfi_offset 15, -6
 1027 000a 0F93      		push r16
 1028               	.LCFI46:
 1029               		.cfi_def_cfa_offset 8
 1030               		.cfi_offset 16, -7
 1031 000c 1F93      		push r17
 1032               	.LCFI47:
 1033               		.cfi_def_cfa_offset 9
 1034               		.cfi_offset 17, -8
 1035 000e CF93      		push r28
 1036               	.LCFI48:
 1037               		.cfi_def_cfa_offset 10
 1038               		.cfi_offset 28, -9
 1039 0010 DF93      		push r29
 1040               	.LCFI49:
 1041               		.cfi_def_cfa_offset 11
 1042               		.cfi_offset 29, -10
 1043               	/* prologue: function */
 1044               	/* frame size = 0 */
 1045               	/* stack size = 9 */
 1046               	.L__stack_usage = 9
 1047 0012 EC01      		movw r28,r24
 1048 0014 8B01      		movw r16,r22
 1049 0016 7A01      		movw r14,r20
  37:LUFA/LUFA/Drivers/USB/Core/AVR8/Template/Template_Endpoint_RW.c **** 	uint16_t BytesInTransfer = 0;
 1050               		.loc 3 37 2 is_stmt 1 view .LVU252
 1051               	.LVL90:
  38:LUFA/LUFA/Drivers/USB/Core/AVR8/Template/Template_Endpoint_RW.c **** 	uint8_t  ErrorCode;
 1052               		.loc 3 38 2 view .LVU253
  39:LUFA/LUFA/Drivers/USB/Core/AVR8/Template/Template_Endpoint_RW.c **** 
 1053               		.loc 3 39 2 view .LVU254
  41:LUFA/LUFA/Drivers/USB/Core/AVR8/Template/Template_Endpoint_RW.c **** 	  return ErrorCode;
 1054               		.loc 3 41 2 view .LVU255
  41:LUFA/LUFA/Drivers/USB/Core/AVR8/Template/Template_Endpoint_RW.c **** 	  return ErrorCode;
 1055               		.loc 3 41 19 is_stmt 0 view .LVU256
 1056 0018 0E94 0000 		call Endpoint_WaitUntilReady
 1057               	.LVL91:
  41:LUFA/LUFA/Drivers/USB/Core/AVR8/Template/Template_Endpoint_RW.c **** 	  return ErrorCode;
 1058               		.loc 3 41 19 view .LVU257
 1059 001c D82E      		mov r13,r24
 1060               	.LVL92:
  41:LUFA/LUFA/Drivers/USB/Core/AVR8/Template/Template_Endpoint_RW.c **** 	  return ErrorCode;
 1061               		.loc 3 41 5 view .LVU258
 1062 001e 8111      		cpse r24,__zero_reg__
 1063 0020 00C0      		rjmp .L61
  37:LUFA/LUFA/Drivers/USB/Core/AVR8/Template/Template_Endpoint_RW.c **** 	uint16_t BytesInTransfer = 0;
 1064               		.loc 3 37 47 view .LVU259
 1065 0022 C801      		movw r24,r16
 1066 0024 0197      		sbiw r24,1
 1067               	.LVL93:
  37:LUFA/LUFA/Drivers/USB/Core/AVR8/Template/Template_Endpoint_RW.c **** 	uint16_t BytesInTransfer = 0;
 1068               		.loc 3 37 11 view .LVU260
 1069 0026 C80F      		add r28,r24
 1070 0028 D91F      		adc r29,r25
 1071               	.LVL94:
  44:LUFA/LUFA/Drivers/USB/Core/AVR8/Template/Template_Endpoint_RW.c **** 	{
 1072               		.loc 3 44 2 is_stmt 1 view .LVU261
  44:LUFA/LUFA/Drivers/USB/Core/AVR8/Template/Template_Endpoint_RW.c **** 	{
 1073               		.loc 3 44 5 is_stmt 0 view .LVU262
 1074 002a E114      		cp r14,__zero_reg__
 1075 002c F104      		cpc r15,__zero_reg__
 1076 002e 01F0      		breq .L63
  46:LUFA/LUFA/Drivers/USB/Core/AVR8/Template/Template_Endpoint_RW.c **** 		TEMPLATE_BUFFER_MOVE(DataStream, *BytesProcessed);
 1077               		.loc 3 46 3 is_stmt 1 view .LVU263
  46:LUFA/LUFA/Drivers/USB/Core/AVR8/Template/Template_Endpoint_RW.c **** 		TEMPLATE_BUFFER_MOVE(DataStream, *BytesProcessed);
 1078               		.loc 3 46 13 is_stmt 0 view .LVU264
 1079 0030 F701      		movw r30,r14
 1080 0032 8081      		ld r24,Z
 1081 0034 9181      		ldd r25,Z+1
 1082               	.LVL95:
  46:LUFA/LUFA/Drivers/USB/Core/AVR8/Template/Template_Endpoint_RW.c **** 		TEMPLATE_BUFFER_MOVE(DataStream, *BytesProcessed);
 1083               		.loc 3 46 10 view .LVU265
 1084 0036 081B      		sub r16,r24
 1085 0038 190B      		sbc r17,r25
 1086               	.LVL96:
  47:LUFA/LUFA/Drivers/USB/Core/AVR8/Template/Template_Endpoint_RW.c **** 	}
 1087               		.loc 3 47 3 is_stmt 1 view .LVU266
 1088 003a C81B      		sub r28,r24
 1089 003c D90B      		sbc r29,r25
 1090               	.LVL97:
 1091               	.L63:
  36:LUFA/LUFA/Drivers/USB/Core/AVR8/Template/Template_Endpoint_RW.c **** 	uint8_t* DataStream      = ((uint8_t*)Buffer + TEMPLATE_BUFFER_OFFSET(Length));
 1092               		.loc 3 36 1 is_stmt 0 view .LVU267
 1093 003e B12C      		mov r11,__zero_reg__
 1094 0040 A12C      		mov r10,__zero_reg__
 1095               	.LVL98:
 1096               	.L64:
  50:LUFA/LUFA/Drivers/USB/Core/AVR8/Template/Template_Endpoint_RW.c **** 	{
 1097               		.loc 3 50 8 is_stmt 1 view .LVU268
 1098 0042 0115      		cp r16,__zero_reg__
 1099 0044 1105      		cpc r17,__zero_reg__
 1100 0046 01F0      		breq .L61
  52:LUFA/LUFA/Drivers/USB/Core/AVR8/Template/Template_Endpoint_RW.c **** 		{
 1101               		.loc 3 52 3 view .LVU269
 1102               	.LBB286:
 1103               	.LBI286:
 418:LUFA/LUFA/Drivers/USB/Core/AVR8/../AVR8/../AVR8/Endpoint_AVR8.h **** 			{
 1104               		.loc 2 418 23 view .LVU270
 1105               	.LBB287:
 420:LUFA/LUFA/Drivers/USB/Core/AVR8/../AVR8/../AVR8/Endpoint_AVR8.h **** 			}
 1106               		.loc 2 420 5 view .LVU271
 420:LUFA/LUFA/Drivers/USB/Core/AVR8/../AVR8/../AVR8/Endpoint_AVR8.h **** 			}
 1107               		.loc 2 420 14 is_stmt 0 view .LVU272
 1108 0048 8091 E800 		lds r24,232
 1109               	.LBE287:
 1110               	.LBE286:
  52:LUFA/LUFA/Drivers/USB/Core/AVR8/Template/Template_Endpoint_RW.c **** 		{
 1111               		.loc 3 52 6 view .LVU273
 1112 004c 85FD      		sbrc r24,5
 1113 004e 00C0      		rjmp .L65
  54:LUFA/LUFA/Drivers/USB/Core/AVR8/Template/Template_Endpoint_RW.c **** 
 1114               		.loc 3 54 4 is_stmt 1 view .LVU274
 1115               	.LBB288:
 1116               	.LBI288:
 528:LUFA/LUFA/Drivers/USB/Core/AVR8/../AVR8/../AVR8/Endpoint_AVR8.h **** 			{
 1117               		.loc 2 528 23 view .LVU275
 1118               	.LBB289:
 531:LUFA/LUFA/Drivers/USB/Core/AVR8/../AVR8/../AVR8/Endpoint_AVR8.h **** 				#else
 1119               		.loc 2 531 6 view .LVU276
 531:LUFA/LUFA/Drivers/USB/Core/AVR8/../AVR8/../AVR8/Endpoint_AVR8.h **** 				#else
 1120               		.loc 2 531 13 is_stmt 0 view .LVU277
 1121 0050 8091 E800 		lds r24,232
 1122 0054 8B77      		andi r24,lo8(123)
 1123 0056 8093 E800 		sts 232,r24
 1124               	.LBE289:
 1125               	.LBE288:
  57:LUFA/LUFA/Drivers/USB/Core/AVR8/Template/Template_Endpoint_RW.c **** 			#endif
 1126               		.loc 3 57 4 is_stmt 1 view .LVU278
 1127 005a 0E94 0000 		call USB_USBTask
 1128               	.LVL99:
  60:LUFA/LUFA/Drivers/USB/Core/AVR8/Template/Template_Endpoint_RW.c **** 			{
 1129               		.loc 3 60 4 view .LVU279
  60:LUFA/LUFA/Drivers/USB/Core/AVR8/Template/Template_Endpoint_RW.c **** 			{
 1130               		.loc 3 60 7 is_stmt 0 view .LVU280
 1131 005e E114      		cp r14,__zero_reg__
 1132 0060 F104      		cpc r15,__zero_reg__
 1133 0062 01F0      		breq .L66
  62:LUFA/LUFA/Drivers/USB/Core/AVR8/Template/Template_Endpoint_RW.c **** 				return ENDPOINT_RWSTREAM_IncompleteTransfer;
 1134               		.loc 3 62 5 is_stmt 1 view .LVU281
  62:LUFA/LUFA/Drivers/USB/Core/AVR8/Template/Template_Endpoint_RW.c **** 				return ENDPOINT_RWSTREAM_IncompleteTransfer;
 1135               		.loc 3 62 21 is_stmt 0 view .LVU282
 1136 0064 F701      		movw r30,r14
 1137 0066 8081      		ld r24,Z
 1138 0068 9181      		ldd r25,Z+1
 1139 006a A80E      		add r10,r24
 1140 006c B91E      		adc r11,r25
 1141               	.LVL100:
  62:LUFA/LUFA/Drivers/USB/Core/AVR8/Template/Template_Endpoint_RW.c **** 				return ENDPOINT_RWSTREAM_IncompleteTransfer;
 1142               		.loc 3 62 21 view .LVU283
 1143 006e B182      		std Z+1,r11
 1144 0070 A082      		st Z,r10
  63:LUFA/LUFA/Drivers/USB/Core/AVR8/Template/Template_Endpoint_RW.c **** 			}
 1145               		.loc 3 63 5 is_stmt 1 view .LVU284
  63:LUFA/LUFA/Drivers/USB/Core/AVR8/Template/Template_Endpoint_RW.c **** 			}
 1146               		.loc 3 63 12 is_stmt 0 view .LVU285
 1147 0072 85E0      		ldi r24,lo8(5)
 1148 0074 D82E      		mov r13,r24
 1149               	.LVL101:
 1150               	.L61:
 1151               		.loc 3 79 1 view .LVU286
 1152 0076 8D2D      		mov r24,r13
 1153               	/* epilogue start */
 1154 0078 DF91      		pop r29
 1155 007a CF91      		pop r28
 1156 007c 1F91      		pop r17
 1157 007e 0F91      		pop r16
 1158               	.LVL102:
 1159               		.loc 3 79 1 view .LVU287
 1160 0080 FF90      		pop r15
 1161 0082 EF90      		pop r14
 1162               	.LVL103:
 1163               		.loc 3 79 1 view .LVU288
 1164 0084 DF90      		pop r13
 1165 0086 BF90      		pop r11
 1166 0088 AF90      		pop r10
 1167 008a 0895      		ret
 1168               	.LVL104:
 1169               	.L66:
  66:LUFA/LUFA/Drivers/USB/Core/AVR8/Template/Template_Endpoint_RW.c **** 			  return ErrorCode;
 1170               		.loc 3 66 4 is_stmt 1 view .LVU289
  66:LUFA/LUFA/Drivers/USB/Core/AVR8/Template/Template_Endpoint_RW.c **** 			  return ErrorCode;
 1171               		.loc 3 66 21 is_stmt 0 view .LVU290
 1172 008c 0E94 0000 		call Endpoint_WaitUntilReady
 1173               	.LVL105:
  66:LUFA/LUFA/Drivers/USB/Core/AVR8/Template/Template_Endpoint_RW.c **** 			  return ErrorCode;
 1174               		.loc 3 66 7 view .LVU291
 1175 0090 8823      		tst r24
 1176 0092 01F0      		breq .L64
 1177 0094 D82E      		mov r13,r24
 1178 0096 00C0      		rjmp .L61
 1179               	.LVL106:
 1180               	.L65:
  71:LUFA/LUFA/Drivers/USB/Core/AVR8/Template/Template_Endpoint_RW.c **** 			TEMPLATE_BUFFER_MOVE(DataStream, 1);
 1181               		.loc 3 71 4 is_stmt 1 view .LVU292
 1182               	.LBB290:
 1183               	.LBI290:
 610:LUFA/LUFA/Drivers/USB/Core/AVR8/../AVR8/../AVR8/Endpoint_AVR8.h **** 			{
 1184               		.loc 2 610 26 view .LVU293
 1185               	.LBB291:
 612:LUFA/LUFA/Drivers/USB/Core/AVR8/../AVR8/../AVR8/Endpoint_AVR8.h **** 			}
 1186               		.loc 2 612 5 view .LVU294
 612:LUFA/LUFA/Drivers/USB/Core/AVR8/../AVR8/../AVR8/Endpoint_AVR8.h **** 			}
 1187               		.loc 2 612 12 is_stmt 0 view .LVU295
 1188 0098 8091 F100 		lds r24,241
 1189               	.LBE291:
 1190               	.LBE290:
  71:LUFA/LUFA/Drivers/USB/Core/AVR8/Template/Template_Endpoint_RW.c **** 			TEMPLATE_BUFFER_MOVE(DataStream, 1);
 1191               		.loc 3 71 4 view .LVU296
 1192 009c 8883      		st Y,r24
  72:LUFA/LUFA/Drivers/USB/Core/AVR8/Template/Template_Endpoint_RW.c **** 			Length--;
 1193               		.loc 3 72 4 is_stmt 1 view .LVU297
 1194 009e 2197      		sbiw r28,1
 1195               	.LVL107:
  73:LUFA/LUFA/Drivers/USB/Core/AVR8/Template/Template_Endpoint_RW.c **** 			BytesInTransfer++;
 1196               		.loc 3 73 4 view .LVU298
  73:LUFA/LUFA/Drivers/USB/Core/AVR8/Template/Template_Endpoint_RW.c **** 			BytesInTransfer++;
 1197               		.loc 3 73 10 is_stmt 0 view .LVU299
 1198 00a0 0150      		subi r16,1
 1199 00a2 1109      		sbc r17,__zero_reg__
 1200               	.LVL108:
  74:LUFA/LUFA/Drivers/USB/Core/AVR8/Template/Template_Endpoint_RW.c **** 		}
 1201               		.loc 3 74 4 is_stmt 1 view .LVU300
  74:LUFA/LUFA/Drivers/USB/Core/AVR8/Template/Template_Endpoint_RW.c **** 		}
 1202               		.loc 3 74 19 is_stmt 0 view .LVU301
 1203 00a4 FFEF      		ldi r31,-1
 1204 00a6 AF1A      		sub r10,r31
 1205 00a8 BF0A      		sbc r11,r31
 1206               	.LVL109:
  74:LUFA/LUFA/Drivers/USB/Core/AVR8/Template/Template_Endpoint_RW.c **** 		}
 1207               		.loc 3 74 19 view .LVU302
 1208 00aa 00C0      		rjmp .L64
 1209               		.cfi_endproc
 1210               	.LFE86:
 1212               		.section	.text.Endpoint_Write_PStream_LE,"ax",@progbits
 1213               	.global	Endpoint_Write_PStream_LE
 1215               	Endpoint_Write_PStream_LE:
 1216               	.LVL110:
 1217               	.LFB87:
  36:LUFA/LUFA/Drivers/USB/Core/AVR8/Template/Template_Endpoint_RW.c **** 	uint8_t* DataStream      = ((uint8_t*)Buffer + TEMPLATE_BUFFER_OFFSET(Length));
 1218               		.loc 3 36 1 is_stmt 1 view -0
 1219               		.cfi_startproc
  36:LUFA/LUFA/Drivers/USB/Core/AVR8/Template/Template_Endpoint_RW.c **** 	uint8_t* DataStream      = ((uint8_t*)Buffer + TEMPLATE_BUFFER_OFFSET(Length));
 1220               		.loc 3 36 1 is_stmt 0 view .LVU304
 1221 0000 AF92      		push r10
 1222               	.LCFI50:
 1223               		.cfi_def_cfa_offset 3
 1224               		.cfi_offset 10, -2
 1225 0002 BF92      		push r11
 1226               	.LCFI51:
 1227               		.cfi_def_cfa_offset 4
 1228               		.cfi_offset 11, -3
 1229 0004 DF92      		push r13
 1230               	.LCFI52:
 1231               		.cfi_def_cfa_offset 5
 1232               		.cfi_offset 13, -4
 1233 0006 EF92      		push r14
 1234               	.LCFI53:
 1235               		.cfi_def_cfa_offset 6
 1236               		.cfi_offset 14, -5
 1237 0008 FF92      		push r15
 1238               	.LCFI54:
 1239               		.cfi_def_cfa_offset 7
 1240               		.cfi_offset 15, -6
 1241 000a 0F93      		push r16
 1242               	.LCFI55:
 1243               		.cfi_def_cfa_offset 8
 1244               		.cfi_offset 16, -7
 1245 000c 1F93      		push r17
 1246               	.LCFI56:
 1247               		.cfi_def_cfa_offset 9
 1248               		.cfi_offset 17, -8
 1249 000e CF93      		push r28
 1250               	.LCFI57:
 1251               		.cfi_def_cfa_offset 10
 1252               		.cfi_offset 28, -9
 1253 0010 DF93      		push r29
 1254               	.LCFI58:
 1255               		.cfi_def_cfa_offset 11
 1256               		.cfi_offset 29, -10
 1257               	/* prologue: function */
 1258               	/* frame size = 0 */
 1259               	/* stack size = 9 */
 1260               	.L__stack_usage = 9
 1261 0012 8C01      		movw r16,r24
 1262 0014 EB01      		movw r28,r22
 1263 0016 7A01      		movw r14,r20
  37:LUFA/LUFA/Drivers/USB/Core/AVR8/Template/Template_Endpoint_RW.c **** 	uint16_t BytesInTransfer = 0;
 1264               		.loc 3 37 2 is_stmt 1 view .LVU305
 1265               	.LVL111:
  38:LUFA/LUFA/Drivers/USB/Core/AVR8/Template/Template_Endpoint_RW.c **** 	uint8_t  ErrorCode;
 1266               		.loc 3 38 2 view .LVU306
  39:LUFA/LUFA/Drivers/USB/Core/AVR8/Template/Template_Endpoint_RW.c **** 
 1267               		.loc 3 39 2 view .LVU307
  41:LUFA/LUFA/Drivers/USB/Core/AVR8/Template/Template_Endpoint_RW.c **** 	  return ErrorCode;
 1268               		.loc 3 41 2 view .LVU308
  41:LUFA/LUFA/Drivers/USB/Core/AVR8/Template/Template_Endpoint_RW.c **** 	  return ErrorCode;
 1269               		.loc 3 41 19 is_stmt 0 view .LVU309
 1270 0018 0E94 0000 		call Endpoint_WaitUntilReady
 1271               	.LVL112:
  41:LUFA/LUFA/Drivers/USB/Core/AVR8/Template/Template_Endpoint_RW.c **** 	  return ErrorCode;
 1272               		.loc 3 41 19 view .LVU310
 1273 001c D82E      		mov r13,r24
 1274               	.LVL113:
  41:LUFA/LUFA/Drivers/USB/Core/AVR8/Template/Template_Endpoint_RW.c **** 	  return ErrorCode;
 1275               		.loc 3 41 5 view .LVU311
 1276 001e 8111      		cpse r24,__zero_reg__
 1277 0020 00C0      		rjmp .L73
  44:LUFA/LUFA/Drivers/USB/Core/AVR8/Template/Template_Endpoint_RW.c **** 	{
 1278               		.loc 3 44 2 is_stmt 1 view .LVU312
  44:LUFA/LUFA/Drivers/USB/Core/AVR8/Template/Template_Endpoint_RW.c **** 	{
 1279               		.loc 3 44 5 is_stmt 0 view .LVU313
 1280 0022 E114      		cp r14,__zero_reg__
 1281 0024 F104      		cpc r15,__zero_reg__
 1282 0026 01F0      		breq .L75
  46:LUFA/LUFA/Drivers/USB/Core/AVR8/Template/Template_Endpoint_RW.c **** 		TEMPLATE_BUFFER_MOVE(DataStream, *BytesProcessed);
 1283               		.loc 3 46 3 is_stmt 1 view .LVU314
  46:LUFA/LUFA/Drivers/USB/Core/AVR8/Template/Template_Endpoint_RW.c **** 		TEMPLATE_BUFFER_MOVE(DataStream, *BytesProcessed);
 1284               		.loc 3 46 13 is_stmt 0 view .LVU315
 1285 0028 F701      		movw r30,r14
 1286 002a 8081      		ld r24,Z
 1287 002c 9181      		ldd r25,Z+1
  46:LUFA/LUFA/Drivers/USB/Core/AVR8/Template/Template_Endpoint_RW.c **** 		TEMPLATE_BUFFER_MOVE(DataStream, *BytesProcessed);
 1288               		.loc 3 46 10 view .LVU316
 1289 002e C81B      		sub r28,r24
 1290 0030 D90B      		sbc r29,r25
 1291               	.LVL114:
  47:LUFA/LUFA/Drivers/USB/Core/AVR8/Template/Template_Endpoint_RW.c **** 	}
 1292               		.loc 3 47 3 is_stmt 1 view .LVU317
 1293 0032 080F      		add r16,r24
 1294 0034 191F      		adc r17,r25
 1295               	.LVL115:
 1296               	.L75:
  36:LUFA/LUFA/Drivers/USB/Core/AVR8/Template/Template_Endpoint_RW.c **** 	uint8_t* DataStream      = ((uint8_t*)Buffer + TEMPLATE_BUFFER_OFFSET(Length));
 1297               		.loc 3 36 1 is_stmt 0 view .LVU318
 1298 0036 B12C      		mov r11,__zero_reg__
 1299 0038 A12C      		mov r10,__zero_reg__
 1300               	.LVL116:
 1301               	.L76:
  50:LUFA/LUFA/Drivers/USB/Core/AVR8/Template/Template_Endpoint_RW.c **** 	{
 1302               		.loc 3 50 8 is_stmt 1 view .LVU319
 1303 003a 2097      		sbiw r28,0
 1304 003c 01F0      		breq .L73
  52:LUFA/LUFA/Drivers/USB/Core/AVR8/Template/Template_Endpoint_RW.c **** 		{
 1305               		.loc 3 52 3 view .LVU320
 1306               	.LBB292:
 1307               	.LBI292:
 418:LUFA/LUFA/Drivers/USB/Core/AVR8/../AVR8/../AVR8/Endpoint_AVR8.h **** 			{
 1308               		.loc 2 418 23 view .LVU321
 1309               	.LBB293:
 420:LUFA/LUFA/Drivers/USB/Core/AVR8/../AVR8/../AVR8/Endpoint_AVR8.h **** 			}
 1310               		.loc 2 420 5 view .LVU322
 420:LUFA/LUFA/Drivers/USB/Core/AVR8/../AVR8/../AVR8/Endpoint_AVR8.h **** 			}
 1311               		.loc 2 420 14 is_stmt 0 view .LVU323
 1312 003e 8091 E800 		lds r24,232
 1313               	.LBE293:
 1314               	.LBE292:
  52:LUFA/LUFA/Drivers/USB/Core/AVR8/Template/Template_Endpoint_RW.c **** 		{
 1315               		.loc 3 52 6 view .LVU324
 1316 0042 85FD      		sbrc r24,5
 1317 0044 00C0      		rjmp .L77
  54:LUFA/LUFA/Drivers/USB/Core/AVR8/Template/Template_Endpoint_RW.c **** 
 1318               		.loc 3 54 4 is_stmt 1 view .LVU325
 1319               	.LBB294:
 1320               	.LBI294:
 513:LUFA/LUFA/Drivers/USB/Core/AVR8/../AVR8/../AVR8/Endpoint_AVR8.h **** 			{
 1321               		.loc 2 513 23 view .LVU326
 1322               	.LBB295:
 516:LUFA/LUFA/Drivers/USB/Core/AVR8/../AVR8/../AVR8/Endpoint_AVR8.h **** 				#else
 1323               		.loc 2 516 6 view .LVU327
 516:LUFA/LUFA/Drivers/USB/Core/AVR8/../AVR8/../AVR8/Endpoint_AVR8.h **** 				#else
 1324               		.loc 2 516 13 is_stmt 0 view .LVU328
 1325 0046 8091 E800 		lds r24,232
 1326 004a 8E77      		andi r24,lo8(126)
 1327 004c 8093 E800 		sts 232,r24
 1328               	.LBE295:
 1329               	.LBE294:
  57:LUFA/LUFA/Drivers/USB/Core/AVR8/Template/Template_Endpoint_RW.c **** 			#endif
 1330               		.loc 3 57 4 is_stmt 1 view .LVU329
 1331 0050 0E94 0000 		call USB_USBTask
 1332               	.LVL117:
  60:LUFA/LUFA/Drivers/USB/Core/AVR8/Template/Template_Endpoint_RW.c **** 			{
 1333               		.loc 3 60 4 view .LVU330
  60:LUFA/LUFA/Drivers/USB/Core/AVR8/Template/Template_Endpoint_RW.c **** 			{
 1334               		.loc 3 60 7 is_stmt 0 view .LVU331
 1335 0054 E114      		cp r14,__zero_reg__
 1336 0056 F104      		cpc r15,__zero_reg__
 1337 0058 01F0      		breq .L78
  62:LUFA/LUFA/Drivers/USB/Core/AVR8/Template/Template_Endpoint_RW.c **** 				return ENDPOINT_RWSTREAM_IncompleteTransfer;
 1338               		.loc 3 62 5 is_stmt 1 view .LVU332
  62:LUFA/LUFA/Drivers/USB/Core/AVR8/Template/Template_Endpoint_RW.c **** 				return ENDPOINT_RWSTREAM_IncompleteTransfer;
 1339               		.loc 3 62 21 is_stmt 0 view .LVU333
 1340 005a F701      		movw r30,r14
 1341 005c 8081      		ld r24,Z
 1342 005e 9181      		ldd r25,Z+1
 1343 0060 A80E      		add r10,r24
 1344 0062 B91E      		adc r11,r25
 1345               	.LVL118:
  62:LUFA/LUFA/Drivers/USB/Core/AVR8/Template/Template_Endpoint_RW.c **** 				return ENDPOINT_RWSTREAM_IncompleteTransfer;
 1346               		.loc 3 62 21 view .LVU334
 1347 0064 B182      		std Z+1,r11
 1348 0066 A082      		st Z,r10
  63:LUFA/LUFA/Drivers/USB/Core/AVR8/Template/Template_Endpoint_RW.c **** 			}
 1349               		.loc 3 63 5 is_stmt 1 view .LVU335
  63:LUFA/LUFA/Drivers/USB/Core/AVR8/Template/Template_Endpoint_RW.c **** 			}
 1350               		.loc 3 63 12 is_stmt 0 view .LVU336
 1351 0068 85E0      		ldi r24,lo8(5)
 1352 006a D82E      		mov r13,r24
 1353               	.L73:
 1354               		.loc 3 79 1 view .LVU337
 1355 006c 8D2D      		mov r24,r13
 1356               	/* epilogue start */
 1357 006e DF91      		pop r29
 1358 0070 CF91      		pop r28
 1359               	.LVL119:
 1360               		.loc 3 79 1 view .LVU338
 1361 0072 1F91      		pop r17
 1362 0074 0F91      		pop r16
 1363               	.LVL120:
 1364               		.loc 3 79 1 view .LVU339
 1365 0076 FF90      		pop r15
 1366 0078 EF90      		pop r14
 1367               	.LVL121:
 1368               		.loc 3 79 1 view .LVU340
 1369 007a DF90      		pop r13
 1370 007c BF90      		pop r11
 1371 007e AF90      		pop r10
 1372 0080 0895      		ret
 1373               	.LVL122:
 1374               	.L78:
  66:LUFA/LUFA/Drivers/USB/Core/AVR8/Template/Template_Endpoint_RW.c **** 			  return ErrorCode;
 1375               		.loc 3 66 4 is_stmt 1 view .LVU341
  66:LUFA/LUFA/Drivers/USB/Core/AVR8/Template/Template_Endpoint_RW.c **** 			  return ErrorCode;
 1376               		.loc 3 66 21 is_stmt 0 view .LVU342
 1377 0082 0E94 0000 		call Endpoint_WaitUntilReady
 1378               	.LVL123:
  66:LUFA/LUFA/Drivers/USB/Core/AVR8/Template/Template_Endpoint_RW.c **** 			  return ErrorCode;
 1379               		.loc 3 66 7 view .LVU343
 1380 0086 8823      		tst r24
 1381 0088 01F0      		breq .L76
 1382 008a D82E      		mov r13,r24
 1383 008c 00C0      		rjmp .L73
 1384               	.LVL124:
 1385               	.L77:
  71:LUFA/LUFA/Drivers/USB/Core/AVR8/Template/Template_Endpoint_RW.c **** 			TEMPLATE_BUFFER_MOVE(DataStream, 1);
 1386               		.loc 3 71 4 is_stmt 1 view .LVU344
 1387               	.LBB296:
  71:LUFA/LUFA/Drivers/USB/Core/AVR8/Template/Template_Endpoint_RW.c **** 			TEMPLATE_BUFFER_MOVE(DataStream, 1);
 1388               		.loc 3 71 4 view .LVU345
  71:LUFA/LUFA/Drivers/USB/Core/AVR8/Template/Template_Endpoint_RW.c **** 			TEMPLATE_BUFFER_MOVE(DataStream, 1);
 1389               		.loc 3 71 4 view .LVU346
  71:LUFA/LUFA/Drivers/USB/Core/AVR8/Template/Template_Endpoint_RW.c **** 			TEMPLATE_BUFFER_MOVE(DataStream, 1);
 1390               		.loc 3 71 4 view .LVU347
 1391 008e F801      		movw r30,r16
 1392               	/* #APP */
 1393               	 ;  71 "LUFA/LUFA/Drivers/USB/Core/AVR8/Template/Template_Endpoint_RW.c" 1
 1394 0090 8491      		lpm r24, Z
 1395               		
 1396               	 ;  0 "" 2
 1397               	.LVL125:
  71:LUFA/LUFA/Drivers/USB/Core/AVR8/Template/Template_Endpoint_RW.c **** 			TEMPLATE_BUFFER_MOVE(DataStream, 1);
 1398               		.loc 3 71 4 view .LVU348
  71:LUFA/LUFA/Drivers/USB/Core/AVR8/Template/Template_Endpoint_RW.c **** 			TEMPLATE_BUFFER_MOVE(DataStream, 1);
 1399               		.loc 3 71 4 is_stmt 0 view .LVU349
 1400               	/* #NOAPP */
 1401               	.LBE296:
 1402               	.LBB297:
 1403               	.LBI297:
 622:LUFA/LUFA/Drivers/USB/Core/AVR8/../AVR8/../AVR8/Endpoint_AVR8.h **** 			{
 1404               		.loc 2 622 23 is_stmt 1 view .LVU350
 1405               	.LBB298:
 624:LUFA/LUFA/Drivers/USB/Core/AVR8/../AVR8/../AVR8/Endpoint_AVR8.h **** 			}
 1406               		.loc 2 624 5 view .LVU351
 624:LUFA/LUFA/Drivers/USB/Core/AVR8/../AVR8/../AVR8/Endpoint_AVR8.h **** 			}
 1407               		.loc 2 624 12 is_stmt 0 view .LVU352
 1408 0092 8093 F100 		sts 241,r24
 1409               	.LVL126:
 624:LUFA/LUFA/Drivers/USB/Core/AVR8/../AVR8/../AVR8/Endpoint_AVR8.h **** 			}
 1410               		.loc 2 624 12 view .LVU353
 1411               	.LBE298:
 1412               	.LBE297:
  72:LUFA/LUFA/Drivers/USB/Core/AVR8/Template/Template_Endpoint_RW.c **** 			Length--;
 1413               		.loc 3 72 4 is_stmt 1 view .LVU354
 1414 0096 0F5F      		subi r16,-1
 1415 0098 1F4F      		sbci r17,-1
 1416               	.LVL127:
  73:LUFA/LUFA/Drivers/USB/Core/AVR8/Template/Template_Endpoint_RW.c **** 			BytesInTransfer++;
 1417               		.loc 3 73 4 view .LVU355
  73:LUFA/LUFA/Drivers/USB/Core/AVR8/Template/Template_Endpoint_RW.c **** 			BytesInTransfer++;
 1418               		.loc 3 73 10 is_stmt 0 view .LVU356
 1419 009a 2197      		sbiw r28,1
 1420               	.LVL128:
  74:LUFA/LUFA/Drivers/USB/Core/AVR8/Template/Template_Endpoint_RW.c **** 		}
 1421               		.loc 3 74 4 is_stmt 1 view .LVU357
  74:LUFA/LUFA/Drivers/USB/Core/AVR8/Template/Template_Endpoint_RW.c **** 		}
 1422               		.loc 3 74 19 is_stmt 0 view .LVU358
 1423 009c FFEF      		ldi r31,-1
 1424 009e AF1A      		sub r10,r31
 1425 00a0 BF0A      		sbc r11,r31
 1426               	.LVL129:
  74:LUFA/LUFA/Drivers/USB/Core/AVR8/Template/Template_Endpoint_RW.c **** 		}
 1427               		.loc 3 74 19 view .LVU359
 1428 00a2 00C0      		rjmp .L76
 1429               		.cfi_endproc
 1430               	.LFE87:
 1432               		.section	.text.Endpoint_Write_PStream_BE,"ax",@progbits
 1433               	.global	Endpoint_Write_PStream_BE
 1435               	Endpoint_Write_PStream_BE:
 1436               	.LVL130:
 1437               	.LFB88:
  36:LUFA/LUFA/Drivers/USB/Core/AVR8/Template/Template_Endpoint_RW.c **** 	uint8_t* DataStream      = ((uint8_t*)Buffer + TEMPLATE_BUFFER_OFFSET(Length));
 1438               		.loc 3 36 1 is_stmt 1 view -0
 1439               		.cfi_startproc
  36:LUFA/LUFA/Drivers/USB/Core/AVR8/Template/Template_Endpoint_RW.c **** 	uint8_t* DataStream      = ((uint8_t*)Buffer + TEMPLATE_BUFFER_OFFSET(Length));
 1440               		.loc 3 36 1 is_stmt 0 view .LVU361
 1441 0000 AF92      		push r10
 1442               	.LCFI59:
 1443               		.cfi_def_cfa_offset 3
 1444               		.cfi_offset 10, -2
 1445 0002 BF92      		push r11
 1446               	.LCFI60:
 1447               		.cfi_def_cfa_offset 4
 1448               		.cfi_offset 11, -3
 1449 0004 DF92      		push r13
 1450               	.LCFI61:
 1451               		.cfi_def_cfa_offset 5
 1452               		.cfi_offset 13, -4
 1453 0006 EF92      		push r14
 1454               	.LCFI62:
 1455               		.cfi_def_cfa_offset 6
 1456               		.cfi_offset 14, -5
 1457 0008 FF92      		push r15
 1458               	.LCFI63:
 1459               		.cfi_def_cfa_offset 7
 1460               		.cfi_offset 15, -6
 1461 000a 0F93      		push r16
 1462               	.LCFI64:
 1463               		.cfi_def_cfa_offset 8
 1464               		.cfi_offset 16, -7
 1465 000c 1F93      		push r17
 1466               	.LCFI65:
 1467               		.cfi_def_cfa_offset 9
 1468               		.cfi_offset 17, -8
 1469 000e CF93      		push r28
 1470               	.LCFI66:
 1471               		.cfi_def_cfa_offset 10
 1472               		.cfi_offset 28, -9
 1473 0010 DF93      		push r29
 1474               	.LCFI67:
 1475               		.cfi_def_cfa_offset 11
 1476               		.cfi_offset 29, -10
 1477               	/* prologue: function */
 1478               	/* frame size = 0 */
 1479               	/* stack size = 9 */
 1480               	.L__stack_usage = 9
 1481 0012 EC01      		movw r28,r24
 1482 0014 8B01      		movw r16,r22
 1483 0016 7A01      		movw r14,r20
  37:LUFA/LUFA/Drivers/USB/Core/AVR8/Template/Template_Endpoint_RW.c **** 	uint16_t BytesInTransfer = 0;
 1484               		.loc 3 37 2 is_stmt 1 view .LVU362
 1485               	.LVL131:
  38:LUFA/LUFA/Drivers/USB/Core/AVR8/Template/Template_Endpoint_RW.c **** 	uint8_t  ErrorCode;
 1486               		.loc 3 38 2 view .LVU363
  39:LUFA/LUFA/Drivers/USB/Core/AVR8/Template/Template_Endpoint_RW.c **** 
 1487               		.loc 3 39 2 view .LVU364
  41:LUFA/LUFA/Drivers/USB/Core/AVR8/Template/Template_Endpoint_RW.c **** 	  return ErrorCode;
 1488               		.loc 3 41 2 view .LVU365
  41:LUFA/LUFA/Drivers/USB/Core/AVR8/Template/Template_Endpoint_RW.c **** 	  return ErrorCode;
 1489               		.loc 3 41 19 is_stmt 0 view .LVU366
 1490 0018 0E94 0000 		call Endpoint_WaitUntilReady
 1491               	.LVL132:
  41:LUFA/LUFA/Drivers/USB/Core/AVR8/Template/Template_Endpoint_RW.c **** 	  return ErrorCode;
 1492               		.loc 3 41 19 view .LVU367
 1493 001c D82E      		mov r13,r24
 1494               	.LVL133:
  41:LUFA/LUFA/Drivers/USB/Core/AVR8/Template/Template_Endpoint_RW.c **** 	  return ErrorCode;
 1495               		.loc 3 41 5 view .LVU368
 1496 001e 8111      		cpse r24,__zero_reg__
 1497 0020 00C0      		rjmp .L85
  37:LUFA/LUFA/Drivers/USB/Core/AVR8/Template/Template_Endpoint_RW.c **** 	uint16_t BytesInTransfer = 0;
 1498               		.loc 3 37 47 view .LVU369
 1499 0022 C801      		movw r24,r16
 1500 0024 0197      		sbiw r24,1
 1501               	.LVL134:
  37:LUFA/LUFA/Drivers/USB/Core/AVR8/Template/Template_Endpoint_RW.c **** 	uint16_t BytesInTransfer = 0;
 1502               		.loc 3 37 11 view .LVU370
 1503 0026 C80F      		add r28,r24
 1504 0028 D91F      		adc r29,r25
 1505               	.LVL135:
  44:LUFA/LUFA/Drivers/USB/Core/AVR8/Template/Template_Endpoint_RW.c **** 	{
 1506               		.loc 3 44 2 is_stmt 1 view .LVU371
  44:LUFA/LUFA/Drivers/USB/Core/AVR8/Template/Template_Endpoint_RW.c **** 	{
 1507               		.loc 3 44 5 is_stmt 0 view .LVU372
 1508 002a E114      		cp r14,__zero_reg__
 1509 002c F104      		cpc r15,__zero_reg__
 1510 002e 01F0      		breq .L87
  46:LUFA/LUFA/Drivers/USB/Core/AVR8/Template/Template_Endpoint_RW.c **** 		TEMPLATE_BUFFER_MOVE(DataStream, *BytesProcessed);
 1511               		.loc 3 46 3 is_stmt 1 view .LVU373
  46:LUFA/LUFA/Drivers/USB/Core/AVR8/Template/Template_Endpoint_RW.c **** 		TEMPLATE_BUFFER_MOVE(DataStream, *BytesProcessed);
 1512               		.loc 3 46 13 is_stmt 0 view .LVU374
 1513 0030 F701      		movw r30,r14
 1514 0032 8081      		ld r24,Z
 1515 0034 9181      		ldd r25,Z+1
 1516               	.LVL136:
  46:LUFA/LUFA/Drivers/USB/Core/AVR8/Template/Template_Endpoint_RW.c **** 		TEMPLATE_BUFFER_MOVE(DataStream, *BytesProcessed);
 1517               		.loc 3 46 10 view .LVU375
 1518 0036 081B      		sub r16,r24
 1519 0038 190B      		sbc r17,r25
 1520               	.LVL137:
  47:LUFA/LUFA/Drivers/USB/Core/AVR8/Template/Template_Endpoint_RW.c **** 	}
 1521               		.loc 3 47 3 is_stmt 1 view .LVU376
 1522 003a C81B      		sub r28,r24
 1523 003c D90B      		sbc r29,r25
 1524               	.LVL138:
 1525               	.L87:
  36:LUFA/LUFA/Drivers/USB/Core/AVR8/Template/Template_Endpoint_RW.c **** 	uint8_t* DataStream      = ((uint8_t*)Buffer + TEMPLATE_BUFFER_OFFSET(Length));
 1526               		.loc 3 36 1 is_stmt 0 view .LVU377
 1527 003e B12C      		mov r11,__zero_reg__
 1528 0040 A12C      		mov r10,__zero_reg__
 1529               	.LVL139:
 1530               	.L88:
  50:LUFA/LUFA/Drivers/USB/Core/AVR8/Template/Template_Endpoint_RW.c **** 	{
 1531               		.loc 3 50 8 is_stmt 1 view .LVU378
 1532 0042 0115      		cp r16,__zero_reg__
 1533 0044 1105      		cpc r17,__zero_reg__
 1534 0046 01F0      		breq .L85
  52:LUFA/LUFA/Drivers/USB/Core/AVR8/Template/Template_Endpoint_RW.c **** 		{
 1535               		.loc 3 52 3 view .LVU379
 1536               	.LBB299:
 1537               	.LBI299:
 418:LUFA/LUFA/Drivers/USB/Core/AVR8/../AVR8/../AVR8/Endpoint_AVR8.h **** 			{
 1538               		.loc 2 418 23 view .LVU380
 1539               	.LBB300:
 420:LUFA/LUFA/Drivers/USB/Core/AVR8/../AVR8/../AVR8/Endpoint_AVR8.h **** 			}
 1540               		.loc 2 420 5 view .LVU381
 420:LUFA/LUFA/Drivers/USB/Core/AVR8/../AVR8/../AVR8/Endpoint_AVR8.h **** 			}
 1541               		.loc 2 420 14 is_stmt 0 view .LVU382
 1542 0048 8091 E800 		lds r24,232
 1543               	.LBE300:
 1544               	.LBE299:
  52:LUFA/LUFA/Drivers/USB/Core/AVR8/Template/Template_Endpoint_RW.c **** 		{
 1545               		.loc 3 52 6 view .LVU383
 1546 004c 85FD      		sbrc r24,5
 1547 004e 00C0      		rjmp .L89
  54:LUFA/LUFA/Drivers/USB/Core/AVR8/Template/Template_Endpoint_RW.c **** 
 1548               		.loc 3 54 4 is_stmt 1 view .LVU384
 1549               	.LBB301:
 1550               	.LBI301:
 513:LUFA/LUFA/Drivers/USB/Core/AVR8/../AVR8/../AVR8/Endpoint_AVR8.h **** 			{
 1551               		.loc 2 513 23 view .LVU385
 1552               	.LBB302:
 516:LUFA/LUFA/Drivers/USB/Core/AVR8/../AVR8/../AVR8/Endpoint_AVR8.h **** 				#else
 1553               		.loc 2 516 6 view .LVU386
 516:LUFA/LUFA/Drivers/USB/Core/AVR8/../AVR8/../AVR8/Endpoint_AVR8.h **** 				#else
 1554               		.loc 2 516 13 is_stmt 0 view .LVU387
 1555 0050 8091 E800 		lds r24,232
 1556 0054 8E77      		andi r24,lo8(126)
 1557 0056 8093 E800 		sts 232,r24
 1558               	.LBE302:
 1559               	.LBE301:
  57:LUFA/LUFA/Drivers/USB/Core/AVR8/Template/Template_Endpoint_RW.c **** 			#endif
 1560               		.loc 3 57 4 is_stmt 1 view .LVU388
 1561 005a 0E94 0000 		call USB_USBTask
 1562               	.LVL140:
  60:LUFA/LUFA/Drivers/USB/Core/AVR8/Template/Template_Endpoint_RW.c **** 			{
 1563               		.loc 3 60 4 view .LVU389
  60:LUFA/LUFA/Drivers/USB/Core/AVR8/Template/Template_Endpoint_RW.c **** 			{
 1564               		.loc 3 60 7 is_stmt 0 view .LVU390
 1565 005e E114      		cp r14,__zero_reg__
 1566 0060 F104      		cpc r15,__zero_reg__
 1567 0062 01F0      		breq .L90
  62:LUFA/LUFA/Drivers/USB/Core/AVR8/Template/Template_Endpoint_RW.c **** 				return ENDPOINT_RWSTREAM_IncompleteTransfer;
 1568               		.loc 3 62 5 is_stmt 1 view .LVU391
  62:LUFA/LUFA/Drivers/USB/Core/AVR8/Template/Template_Endpoint_RW.c **** 				return ENDPOINT_RWSTREAM_IncompleteTransfer;
 1569               		.loc 3 62 21 is_stmt 0 view .LVU392
 1570 0064 F701      		movw r30,r14
 1571 0066 8081      		ld r24,Z
 1572 0068 9181      		ldd r25,Z+1
 1573 006a A80E      		add r10,r24
 1574 006c B91E      		adc r11,r25
 1575               	.LVL141:
  62:LUFA/LUFA/Drivers/USB/Core/AVR8/Template/Template_Endpoint_RW.c **** 				return ENDPOINT_RWSTREAM_IncompleteTransfer;
 1576               		.loc 3 62 21 view .LVU393
 1577 006e B182      		std Z+1,r11
 1578 0070 A082      		st Z,r10
  63:LUFA/LUFA/Drivers/USB/Core/AVR8/Template/Template_Endpoint_RW.c **** 			}
 1579               		.loc 3 63 5 is_stmt 1 view .LVU394
  63:LUFA/LUFA/Drivers/USB/Core/AVR8/Template/Template_Endpoint_RW.c **** 			}
 1580               		.loc 3 63 12 is_stmt 0 view .LVU395
 1581 0072 85E0      		ldi r24,lo8(5)
 1582 0074 D82E      		mov r13,r24
 1583               	.LVL142:
 1584               	.L85:
 1585               		.loc 3 79 1 view .LVU396
 1586 0076 8D2D      		mov r24,r13
 1587               	/* epilogue start */
 1588 0078 DF91      		pop r29
 1589 007a CF91      		pop r28
 1590 007c 1F91      		pop r17
 1591 007e 0F91      		pop r16
 1592               	.LVL143:
 1593               		.loc 3 79 1 view .LVU397
 1594 0080 FF90      		pop r15
 1595 0082 EF90      		pop r14
 1596               	.LVL144:
 1597               		.loc 3 79 1 view .LVU398
 1598 0084 DF90      		pop r13
 1599 0086 BF90      		pop r11
 1600 0088 AF90      		pop r10
 1601 008a 0895      		ret
 1602               	.LVL145:
 1603               	.L90:
  66:LUFA/LUFA/Drivers/USB/Core/AVR8/Template/Template_Endpoint_RW.c **** 			  return ErrorCode;
 1604               		.loc 3 66 4 is_stmt 1 view .LVU399
  66:LUFA/LUFA/Drivers/USB/Core/AVR8/Template/Template_Endpoint_RW.c **** 			  return ErrorCode;
 1605               		.loc 3 66 21 is_stmt 0 view .LVU400
 1606 008c 0E94 0000 		call Endpoint_WaitUntilReady
 1607               	.LVL146:
  66:LUFA/LUFA/Drivers/USB/Core/AVR8/Template/Template_Endpoint_RW.c **** 			  return ErrorCode;
 1608               		.loc 3 66 7 view .LVU401
 1609 0090 8823      		tst r24
 1610 0092 01F0      		breq .L88
 1611 0094 D82E      		mov r13,r24
 1612 0096 00C0      		rjmp .L85
 1613               	.LVL147:
 1614               	.L89:
  71:LUFA/LUFA/Drivers/USB/Core/AVR8/Template/Template_Endpoint_RW.c **** 			TEMPLATE_BUFFER_MOVE(DataStream, 1);
 1615               		.loc 3 71 4 is_stmt 1 view .LVU402
 1616               	.LBB303:
  71:LUFA/LUFA/Drivers/USB/Core/AVR8/Template/Template_Endpoint_RW.c **** 			TEMPLATE_BUFFER_MOVE(DataStream, 1);
 1617               		.loc 3 71 4 view .LVU403
  71:LUFA/LUFA/Drivers/USB/Core/AVR8/Template/Template_Endpoint_RW.c **** 			TEMPLATE_BUFFER_MOVE(DataStream, 1);
 1618               		.loc 3 71 4 view .LVU404
  71:LUFA/LUFA/Drivers/USB/Core/AVR8/Template/Template_Endpoint_RW.c **** 			TEMPLATE_BUFFER_MOVE(DataStream, 1);
 1619               		.loc 3 71 4 view .LVU405
 1620 0098 FE01      		movw r30,r28
 1621               	/* #APP */
 1622               	 ;  71 "LUFA/LUFA/Drivers/USB/Core/AVR8/Template/Template_Endpoint_RW.c" 1
 1623 009a 8491      		lpm r24, Z
 1624               		
 1625               	 ;  0 "" 2
 1626               	.LVL148:
  71:LUFA/LUFA/Drivers/USB/Core/AVR8/Template/Template_Endpoint_RW.c **** 			TEMPLATE_BUFFER_MOVE(DataStream, 1);
 1627               		.loc 3 71 4 view .LVU406
  71:LUFA/LUFA/Drivers/USB/Core/AVR8/Template/Template_Endpoint_RW.c **** 			TEMPLATE_BUFFER_MOVE(DataStream, 1);
 1628               		.loc 3 71 4 is_stmt 0 view .LVU407
 1629               	/* #NOAPP */
 1630               	.LBE303:
 1631               	.LBB304:
 1632               	.LBI304:
 622:LUFA/LUFA/Drivers/USB/Core/AVR8/../AVR8/../AVR8/Endpoint_AVR8.h **** 			{
 1633               		.loc 2 622 23 is_stmt 1 view .LVU408
 1634               	.LBB305:
 624:LUFA/LUFA/Drivers/USB/Core/AVR8/../AVR8/../AVR8/Endpoint_AVR8.h **** 			}
 1635               		.loc 2 624 5 view .LVU409
 624:LUFA/LUFA/Drivers/USB/Core/AVR8/../AVR8/../AVR8/Endpoint_AVR8.h **** 			}
 1636               		.loc 2 624 12 is_stmt 0 view .LVU410
 1637 009c 8093 F100 		sts 241,r24
 1638               	.LVL149:
 624:LUFA/LUFA/Drivers/USB/Core/AVR8/../AVR8/../AVR8/Endpoint_AVR8.h **** 			}
 1639               		.loc 2 624 12 view .LVU411
 1640               	.LBE305:
 1641               	.LBE304:
  72:LUFA/LUFA/Drivers/USB/Core/AVR8/Template/Template_Endpoint_RW.c **** 			Length--;
 1642               		.loc 3 72 4 is_stmt 1 view .LVU412
 1643 00a0 2197      		sbiw r28,1
 1644               	.LVL150:
  73:LUFA/LUFA/Drivers/USB/Core/AVR8/Template/Template_Endpoint_RW.c **** 			BytesInTransfer++;
 1645               		.loc 3 73 4 view .LVU413
  73:LUFA/LUFA/Drivers/USB/Core/AVR8/Template/Template_Endpoint_RW.c **** 			BytesInTransfer++;
 1646               		.loc 3 73 10 is_stmt 0 view .LVU414
 1647 00a2 0150      		subi r16,1
 1648 00a4 1109      		sbc r17,__zero_reg__
 1649               	.LVL151:
  74:LUFA/LUFA/Drivers/USB/Core/AVR8/Template/Template_Endpoint_RW.c **** 		}
 1650               		.loc 3 74 4 is_stmt 1 view .LVU415
  74:LUFA/LUFA/Drivers/USB/Core/AVR8/Template/Template_Endpoint_RW.c **** 		}
 1651               		.loc 3 74 19 is_stmt 0 view .LVU416
 1652 00a6 FFEF      		ldi r31,-1
 1653 00a8 AF1A      		sub r10,r31
 1654 00aa BF0A      		sbc r11,r31
 1655               	.LVL152:
  74:LUFA/LUFA/Drivers/USB/Core/AVR8/Template/Template_Endpoint_RW.c **** 		}
 1656               		.loc 3 74 19 view .LVU417
 1657 00ac 00C0      		rjmp .L88
 1658               		.cfi_endproc
 1659               	.LFE88:
 1661               		.section	.text.Endpoint_Write_EStream_LE,"ax",@progbits
 1662               	.global	Endpoint_Write_EStream_LE
 1664               	Endpoint_Write_EStream_LE:
 1665               	.LVL153:
 1666               	.LFB89:
  36:LUFA/LUFA/Drivers/USB/Core/AVR8/Template/Template_Endpoint_RW.c **** 	uint8_t* DataStream      = ((uint8_t*)Buffer + TEMPLATE_BUFFER_OFFSET(Length));
 1667               		.loc 3 36 1 is_stmt 1 view -0
 1668               		.cfi_startproc
  36:LUFA/LUFA/Drivers/USB/Core/AVR8/Template/Template_Endpoint_RW.c **** 	uint8_t* DataStream      = ((uint8_t*)Buffer + TEMPLATE_BUFFER_OFFSET(Length));
 1669               		.loc 3 36 1 is_stmt 0 view .LVU419
 1670 0000 AF92      		push r10
 1671               	.LCFI68:
 1672               		.cfi_def_cfa_offset 3
 1673               		.cfi_offset 10, -2
 1674 0002 BF92      		push r11
 1675               	.LCFI69:
 1676               		.cfi_def_cfa_offset 4
 1677               		.cfi_offset 11, -3
 1678 0004 DF92      		push r13
 1679               	.LCFI70:
 1680               		.cfi_def_cfa_offset 5
 1681               		.cfi_offset 13, -4
 1682 0006 EF92      		push r14
 1683               	.LCFI71:
 1684               		.cfi_def_cfa_offset 6
 1685               		.cfi_offset 14, -5
 1686 0008 FF92      		push r15
 1687               	.LCFI72:
 1688               		.cfi_def_cfa_offset 7
 1689               		.cfi_offset 15, -6
 1690 000a 0F93      		push r16
 1691               	.LCFI73:
 1692               		.cfi_def_cfa_offset 8
 1693               		.cfi_offset 16, -7
 1694 000c 1F93      		push r17
 1695               	.LCFI74:
 1696               		.cfi_def_cfa_offset 9
 1697               		.cfi_offset 17, -8
 1698 000e CF93      		push r28
 1699               	.LCFI75:
 1700               		.cfi_def_cfa_offset 10
 1701               		.cfi_offset 28, -9
 1702 0010 DF93      		push r29
 1703               	.LCFI76:
 1704               		.cfi_def_cfa_offset 11
 1705               		.cfi_offset 29, -10
 1706               	/* prologue: function */
 1707               	/* frame size = 0 */
 1708               	/* stack size = 9 */
 1709               	.L__stack_usage = 9
 1710 0012 8C01      		movw r16,r24
 1711 0014 EB01      		movw r28,r22
 1712 0016 7A01      		movw r14,r20
  37:LUFA/LUFA/Drivers/USB/Core/AVR8/Template/Template_Endpoint_RW.c **** 	uint16_t BytesInTransfer = 0;
 1713               		.loc 3 37 2 is_stmt 1 view .LVU420
 1714               	.LVL154:
  38:LUFA/LUFA/Drivers/USB/Core/AVR8/Template/Template_Endpoint_RW.c **** 	uint8_t  ErrorCode;
 1715               		.loc 3 38 2 view .LVU421
  39:LUFA/LUFA/Drivers/USB/Core/AVR8/Template/Template_Endpoint_RW.c **** 
 1716               		.loc 3 39 2 view .LVU422
  41:LUFA/LUFA/Drivers/USB/Core/AVR8/Template/Template_Endpoint_RW.c **** 	  return ErrorCode;
 1717               		.loc 3 41 2 view .LVU423
  41:LUFA/LUFA/Drivers/USB/Core/AVR8/Template/Template_Endpoint_RW.c **** 	  return ErrorCode;
 1718               		.loc 3 41 19 is_stmt 0 view .LVU424
 1719 0018 0E94 0000 		call Endpoint_WaitUntilReady
 1720               	.LVL155:
  41:LUFA/LUFA/Drivers/USB/Core/AVR8/Template/Template_Endpoint_RW.c **** 	  return ErrorCode;
 1721               		.loc 3 41 19 view .LVU425
 1722 001c D82E      		mov r13,r24
 1723               	.LVL156:
  41:LUFA/LUFA/Drivers/USB/Core/AVR8/Template/Template_Endpoint_RW.c **** 	  return ErrorCode;
 1724               		.loc 3 41 5 view .LVU426
 1725 001e 8111      		cpse r24,__zero_reg__
 1726 0020 00C0      		rjmp .L97
  44:LUFA/LUFA/Drivers/USB/Core/AVR8/Template/Template_Endpoint_RW.c **** 	{
 1727               		.loc 3 44 2 is_stmt 1 view .LVU427
  44:LUFA/LUFA/Drivers/USB/Core/AVR8/Template/Template_Endpoint_RW.c **** 	{
 1728               		.loc 3 44 5 is_stmt 0 view .LVU428
 1729 0022 E114      		cp r14,__zero_reg__
 1730 0024 F104      		cpc r15,__zero_reg__
 1731 0026 01F0      		breq .L99
  46:LUFA/LUFA/Drivers/USB/Core/AVR8/Template/Template_Endpoint_RW.c **** 		TEMPLATE_BUFFER_MOVE(DataStream, *BytesProcessed);
 1732               		.loc 3 46 3 is_stmt 1 view .LVU429
  46:LUFA/LUFA/Drivers/USB/Core/AVR8/Template/Template_Endpoint_RW.c **** 		TEMPLATE_BUFFER_MOVE(DataStream, *BytesProcessed);
 1733               		.loc 3 46 13 is_stmt 0 view .LVU430
 1734 0028 F701      		movw r30,r14
 1735 002a 8081      		ld r24,Z
 1736 002c 9181      		ldd r25,Z+1
  46:LUFA/LUFA/Drivers/USB/Core/AVR8/Template/Template_Endpoint_RW.c **** 		TEMPLATE_BUFFER_MOVE(DataStream, *BytesProcessed);
 1737               		.loc 3 46 10 view .LVU431
 1738 002e C81B      		sub r28,r24
 1739 0030 D90B      		sbc r29,r25
 1740               	.LVL157:
  47:LUFA/LUFA/Drivers/USB/Core/AVR8/Template/Template_Endpoint_RW.c **** 	}
 1741               		.loc 3 47 3 is_stmt 1 view .LVU432
 1742 0032 080F      		add r16,r24
 1743 0034 191F      		adc r17,r25
 1744               	.LVL158:
 1745               	.L99:
  36:LUFA/LUFA/Drivers/USB/Core/AVR8/Template/Template_Endpoint_RW.c **** 	uint8_t* DataStream      = ((uint8_t*)Buffer + TEMPLATE_BUFFER_OFFSET(Length));
 1746               		.loc 3 36 1 is_stmt 0 view .LVU433
 1747 0036 B12C      		mov r11,__zero_reg__
 1748 0038 A12C      		mov r10,__zero_reg__
 1749               	.LVL159:
 1750               	.L100:
  50:LUFA/LUFA/Drivers/USB/Core/AVR8/Template/Template_Endpoint_RW.c **** 	{
 1751               		.loc 3 50 8 is_stmt 1 view .LVU434
 1752 003a 2097      		sbiw r28,0
 1753 003c 01F0      		breq .L97
  52:LUFA/LUFA/Drivers/USB/Core/AVR8/Template/Template_Endpoint_RW.c **** 		{
 1754               		.loc 3 52 3 view .LVU435
 1755               	.LBB306:
 1756               	.LBI306:
 418:LUFA/LUFA/Drivers/USB/Core/AVR8/../AVR8/../AVR8/Endpoint_AVR8.h **** 			{
 1757               		.loc 2 418 23 view .LVU436
 1758               	.LBB307:
 420:LUFA/LUFA/Drivers/USB/Core/AVR8/../AVR8/../AVR8/Endpoint_AVR8.h **** 			}
 1759               		.loc 2 420 5 view .LVU437
 420:LUFA/LUFA/Drivers/USB/Core/AVR8/../AVR8/../AVR8/Endpoint_AVR8.h **** 			}
 1760               		.loc 2 420 14 is_stmt 0 view .LVU438
 1761 003e 8091 E800 		lds r24,232
 1762               	.LBE307:
 1763               	.LBE306:
  52:LUFA/LUFA/Drivers/USB/Core/AVR8/Template/Template_Endpoint_RW.c **** 		{
 1764               		.loc 3 52 6 view .LVU439
 1765 0042 85FD      		sbrc r24,5
 1766 0044 00C0      		rjmp .L101
  54:LUFA/LUFA/Drivers/USB/Core/AVR8/Template/Template_Endpoint_RW.c **** 
 1767               		.loc 3 54 4 is_stmt 1 view .LVU440
 1768               	.LBB308:
 1769               	.LBI308:
 513:LUFA/LUFA/Drivers/USB/Core/AVR8/../AVR8/../AVR8/Endpoint_AVR8.h **** 			{
 1770               		.loc 2 513 23 view .LVU441
 1771               	.LBB309:
 516:LUFA/LUFA/Drivers/USB/Core/AVR8/../AVR8/../AVR8/Endpoint_AVR8.h **** 				#else
 1772               		.loc 2 516 6 view .LVU442
 516:LUFA/LUFA/Drivers/USB/Core/AVR8/../AVR8/../AVR8/Endpoint_AVR8.h **** 				#else
 1773               		.loc 2 516 13 is_stmt 0 view .LVU443
 1774 0046 8091 E800 		lds r24,232
 1775 004a 8E77      		andi r24,lo8(126)
 1776 004c 8093 E800 		sts 232,r24
 1777               	.LBE309:
 1778               	.LBE308:
  57:LUFA/LUFA/Drivers/USB/Core/AVR8/Template/Template_Endpoint_RW.c **** 			#endif
 1779               		.loc 3 57 4 is_stmt 1 view .LVU444
 1780 0050 0E94 0000 		call USB_USBTask
 1781               	.LVL160:
  60:LUFA/LUFA/Drivers/USB/Core/AVR8/Template/Template_Endpoint_RW.c **** 			{
 1782               		.loc 3 60 4 view .LVU445
  60:LUFA/LUFA/Drivers/USB/Core/AVR8/Template/Template_Endpoint_RW.c **** 			{
 1783               		.loc 3 60 7 is_stmt 0 view .LVU446
 1784 0054 E114      		cp r14,__zero_reg__
 1785 0056 F104      		cpc r15,__zero_reg__
 1786 0058 01F0      		breq .L102
  62:LUFA/LUFA/Drivers/USB/Core/AVR8/Template/Template_Endpoint_RW.c **** 				return ENDPOINT_RWSTREAM_IncompleteTransfer;
 1787               		.loc 3 62 5 is_stmt 1 view .LVU447
  62:LUFA/LUFA/Drivers/USB/Core/AVR8/Template/Template_Endpoint_RW.c **** 				return ENDPOINT_RWSTREAM_IncompleteTransfer;
 1788               		.loc 3 62 21 is_stmt 0 view .LVU448
 1789 005a F701      		movw r30,r14
 1790 005c 8081      		ld r24,Z
 1791 005e 9181      		ldd r25,Z+1
 1792 0060 A80E      		add r10,r24
 1793 0062 B91E      		adc r11,r25
 1794               	.LVL161:
  62:LUFA/LUFA/Drivers/USB/Core/AVR8/Template/Template_Endpoint_RW.c **** 				return ENDPOINT_RWSTREAM_IncompleteTransfer;
 1795               		.loc 3 62 21 view .LVU449
 1796 0064 B182      		std Z+1,r11
 1797 0066 A082      		st Z,r10
  63:LUFA/LUFA/Drivers/USB/Core/AVR8/Template/Template_Endpoint_RW.c **** 			}
 1798               		.loc 3 63 5 is_stmt 1 view .LVU450
  63:LUFA/LUFA/Drivers/USB/Core/AVR8/Template/Template_Endpoint_RW.c **** 			}
 1799               		.loc 3 63 12 is_stmt 0 view .LVU451
 1800 0068 85E0      		ldi r24,lo8(5)
 1801 006a D82E      		mov r13,r24
 1802               	.L97:
 1803               		.loc 3 79 1 view .LVU452
 1804 006c 8D2D      		mov r24,r13
 1805               	/* epilogue start */
 1806 006e DF91      		pop r29
 1807 0070 CF91      		pop r28
 1808               	.LVL162:
 1809               		.loc 3 79 1 view .LVU453
 1810 0072 1F91      		pop r17
 1811 0074 0F91      		pop r16
 1812               	.LVL163:
 1813               		.loc 3 79 1 view .LVU454
 1814 0076 FF90      		pop r15
 1815 0078 EF90      		pop r14
 1816               	.LVL164:
 1817               		.loc 3 79 1 view .LVU455
 1818 007a DF90      		pop r13
 1819 007c BF90      		pop r11
 1820 007e AF90      		pop r10
 1821 0080 0895      		ret
 1822               	.LVL165:
 1823               	.L102:
  66:LUFA/LUFA/Drivers/USB/Core/AVR8/Template/Template_Endpoint_RW.c **** 			  return ErrorCode;
 1824               		.loc 3 66 4 is_stmt 1 view .LVU456
  66:LUFA/LUFA/Drivers/USB/Core/AVR8/Template/Template_Endpoint_RW.c **** 			  return ErrorCode;
 1825               		.loc 3 66 21 is_stmt 0 view .LVU457
 1826 0082 0E94 0000 		call Endpoint_WaitUntilReady
 1827               	.LVL166:
  66:LUFA/LUFA/Drivers/USB/Core/AVR8/Template/Template_Endpoint_RW.c **** 			  return ErrorCode;
 1828               		.loc 3 66 7 view .LVU458
 1829 0086 8823      		tst r24
 1830 0088 01F0      		breq .L100
 1831 008a D82E      		mov r13,r24
 1832 008c 00C0      		rjmp .L97
 1833               	.LVL167:
 1834               	.L101:
  71:LUFA/LUFA/Drivers/USB/Core/AVR8/Template/Template_Endpoint_RW.c **** 			TEMPLATE_BUFFER_MOVE(DataStream, 1);
 1835               		.loc 3 71 4 is_stmt 1 view .LVU459
 1836 008e C801      		movw r24,r16
 1837 0090 0E94 0000 		call eeprom_read_byte
 1838               	.LVL168:
 1839               	.LBB310:
 1840               	.LBI310:
 622:LUFA/LUFA/Drivers/USB/Core/AVR8/../AVR8/../AVR8/Endpoint_AVR8.h **** 			{
 1841               		.loc 2 622 23 view .LVU460
 1842               	.LBB311:
 624:LUFA/LUFA/Drivers/USB/Core/AVR8/../AVR8/../AVR8/Endpoint_AVR8.h **** 			}
 1843               		.loc 2 624 5 view .LVU461
 624:LUFA/LUFA/Drivers/USB/Core/AVR8/../AVR8/../AVR8/Endpoint_AVR8.h **** 			}
 1844               		.loc 2 624 12 is_stmt 0 view .LVU462
 1845 0094 8093 F100 		sts 241,r24
 1846               	.LVL169:
 624:LUFA/LUFA/Drivers/USB/Core/AVR8/../AVR8/../AVR8/Endpoint_AVR8.h **** 			}
 1847               		.loc 2 624 12 view .LVU463
 1848               	.LBE311:
 1849               	.LBE310:
  72:LUFA/LUFA/Drivers/USB/Core/AVR8/Template/Template_Endpoint_RW.c **** 			Length--;
 1850               		.loc 3 72 4 is_stmt 1 view .LVU464
 1851 0098 0F5F      		subi r16,-1
 1852 009a 1F4F      		sbci r17,-1
 1853               	.LVL170:
  73:LUFA/LUFA/Drivers/USB/Core/AVR8/Template/Template_Endpoint_RW.c **** 			BytesInTransfer++;
 1854               		.loc 3 73 4 view .LVU465
  73:LUFA/LUFA/Drivers/USB/Core/AVR8/Template/Template_Endpoint_RW.c **** 			BytesInTransfer++;
 1855               		.loc 3 73 10 is_stmt 0 view .LVU466
 1856 009c 2197      		sbiw r28,1
 1857               	.LVL171:
  74:LUFA/LUFA/Drivers/USB/Core/AVR8/Template/Template_Endpoint_RW.c **** 		}
 1858               		.loc 3 74 4 is_stmt 1 view .LVU467
  74:LUFA/LUFA/Drivers/USB/Core/AVR8/Template/Template_Endpoint_RW.c **** 		}
 1859               		.loc 3 74 19 is_stmt 0 view .LVU468
 1860 009e FFEF      		ldi r31,-1
 1861 00a0 AF1A      		sub r10,r31
 1862 00a2 BF0A      		sbc r11,r31
 1863               	.LVL172:
  74:LUFA/LUFA/Drivers/USB/Core/AVR8/Template/Template_Endpoint_RW.c **** 		}
 1864               		.loc 3 74 19 view .LVU469
 1865 00a4 00C0      		rjmp .L100
 1866               		.cfi_endproc
 1867               	.LFE89:
 1869               		.section	.text.Endpoint_Write_EStream_BE,"ax",@progbits
 1870               	.global	Endpoint_Write_EStream_BE
 1872               	Endpoint_Write_EStream_BE:
 1873               	.LVL173:
 1874               	.LFB90:
  36:LUFA/LUFA/Drivers/USB/Core/AVR8/Template/Template_Endpoint_RW.c **** 	uint8_t* DataStream      = ((uint8_t*)Buffer + TEMPLATE_BUFFER_OFFSET(Length));
 1875               		.loc 3 36 1 is_stmt 1 view -0
 1876               		.cfi_startproc
  36:LUFA/LUFA/Drivers/USB/Core/AVR8/Template/Template_Endpoint_RW.c **** 	uint8_t* DataStream      = ((uint8_t*)Buffer + TEMPLATE_BUFFER_OFFSET(Length));
 1877               		.loc 3 36 1 is_stmt 0 view .LVU471
 1878 0000 AF92      		push r10
 1879               	.LCFI77:
 1880               		.cfi_def_cfa_offset 3
 1881               		.cfi_offset 10, -2
 1882 0002 BF92      		push r11
 1883               	.LCFI78:
 1884               		.cfi_def_cfa_offset 4
 1885               		.cfi_offset 11, -3
 1886 0004 DF92      		push r13
 1887               	.LCFI79:
 1888               		.cfi_def_cfa_offset 5
 1889               		.cfi_offset 13, -4
 1890 0006 EF92      		push r14
 1891               	.LCFI80:
 1892               		.cfi_def_cfa_offset 6
 1893               		.cfi_offset 14, -5
 1894 0008 FF92      		push r15
 1895               	.LCFI81:
 1896               		.cfi_def_cfa_offset 7
 1897               		.cfi_offset 15, -6
 1898 000a 0F93      		push r16
 1899               	.LCFI82:
 1900               		.cfi_def_cfa_offset 8
 1901               		.cfi_offset 16, -7
 1902 000c 1F93      		push r17
 1903               	.LCFI83:
 1904               		.cfi_def_cfa_offset 9
 1905               		.cfi_offset 17, -8
 1906 000e CF93      		push r28
 1907               	.LCFI84:
 1908               		.cfi_def_cfa_offset 10
 1909               		.cfi_offset 28, -9
 1910 0010 DF93      		push r29
 1911               	.LCFI85:
 1912               		.cfi_def_cfa_offset 11
 1913               		.cfi_offset 29, -10
 1914               	/* prologue: function */
 1915               	/* frame size = 0 */
 1916               	/* stack size = 9 */
 1917               	.L__stack_usage = 9
 1918 0012 EC01      		movw r28,r24
 1919 0014 8B01      		movw r16,r22
 1920 0016 7A01      		movw r14,r20
  37:LUFA/LUFA/Drivers/USB/Core/AVR8/Template/Template_Endpoint_RW.c **** 	uint16_t BytesInTransfer = 0;
 1921               		.loc 3 37 2 is_stmt 1 view .LVU472
 1922               	.LVL174:
  38:LUFA/LUFA/Drivers/USB/Core/AVR8/Template/Template_Endpoint_RW.c **** 	uint8_t  ErrorCode;
 1923               		.loc 3 38 2 view .LVU473
  39:LUFA/LUFA/Drivers/USB/Core/AVR8/Template/Template_Endpoint_RW.c **** 
 1924               		.loc 3 39 2 view .LVU474
  41:LUFA/LUFA/Drivers/USB/Core/AVR8/Template/Template_Endpoint_RW.c **** 	  return ErrorCode;
 1925               		.loc 3 41 2 view .LVU475
  41:LUFA/LUFA/Drivers/USB/Core/AVR8/Template/Template_Endpoint_RW.c **** 	  return ErrorCode;
 1926               		.loc 3 41 19 is_stmt 0 view .LVU476
 1927 0018 0E94 0000 		call Endpoint_WaitUntilReady
 1928               	.LVL175:
  41:LUFA/LUFA/Drivers/USB/Core/AVR8/Template/Template_Endpoint_RW.c **** 	  return ErrorCode;
 1929               		.loc 3 41 19 view .LVU477
 1930 001c D82E      		mov r13,r24
 1931               	.LVL176:
  41:LUFA/LUFA/Drivers/USB/Core/AVR8/Template/Template_Endpoint_RW.c **** 	  return ErrorCode;
 1932               		.loc 3 41 5 view .LVU478
 1933 001e 8111      		cpse r24,__zero_reg__
 1934 0020 00C0      		rjmp .L109
  37:LUFA/LUFA/Drivers/USB/Core/AVR8/Template/Template_Endpoint_RW.c **** 	uint16_t BytesInTransfer = 0;
 1935               		.loc 3 37 47 view .LVU479
 1936 0022 C801      		movw r24,r16
 1937 0024 0197      		sbiw r24,1
 1938               	.LVL177:
  37:LUFA/LUFA/Drivers/USB/Core/AVR8/Template/Template_Endpoint_RW.c **** 	uint16_t BytesInTransfer = 0;
 1939               		.loc 3 37 11 view .LVU480
 1940 0026 C80F      		add r28,r24
 1941 0028 D91F      		adc r29,r25
 1942               	.LVL178:
  44:LUFA/LUFA/Drivers/USB/Core/AVR8/Template/Template_Endpoint_RW.c **** 	{
 1943               		.loc 3 44 2 is_stmt 1 view .LVU481
  44:LUFA/LUFA/Drivers/USB/Core/AVR8/Template/Template_Endpoint_RW.c **** 	{
 1944               		.loc 3 44 5 is_stmt 0 view .LVU482
 1945 002a E114      		cp r14,__zero_reg__
 1946 002c F104      		cpc r15,__zero_reg__
 1947 002e 01F0      		breq .L111
  46:LUFA/LUFA/Drivers/USB/Core/AVR8/Template/Template_Endpoint_RW.c **** 		TEMPLATE_BUFFER_MOVE(DataStream, *BytesProcessed);
 1948               		.loc 3 46 3 is_stmt 1 view .LVU483
  46:LUFA/LUFA/Drivers/USB/Core/AVR8/Template/Template_Endpoint_RW.c **** 		TEMPLATE_BUFFER_MOVE(DataStream, *BytesProcessed);
 1949               		.loc 3 46 13 is_stmt 0 view .LVU484
 1950 0030 F701      		movw r30,r14
 1951 0032 8081      		ld r24,Z
 1952 0034 9181      		ldd r25,Z+1
 1953               	.LVL179:
  46:LUFA/LUFA/Drivers/USB/Core/AVR8/Template/Template_Endpoint_RW.c **** 		TEMPLATE_BUFFER_MOVE(DataStream, *BytesProcessed);
 1954               		.loc 3 46 10 view .LVU485
 1955 0036 081B      		sub r16,r24
 1956 0038 190B      		sbc r17,r25
 1957               	.LVL180:
  47:LUFA/LUFA/Drivers/USB/Core/AVR8/Template/Template_Endpoint_RW.c **** 	}
 1958               		.loc 3 47 3 is_stmt 1 view .LVU486
 1959 003a C81B      		sub r28,r24
 1960 003c D90B      		sbc r29,r25
 1961               	.LVL181:
 1962               	.L111:
  36:LUFA/LUFA/Drivers/USB/Core/AVR8/Template/Template_Endpoint_RW.c **** 	uint8_t* DataStream      = ((uint8_t*)Buffer + TEMPLATE_BUFFER_OFFSET(Length));
 1963               		.loc 3 36 1 is_stmt 0 view .LVU487
 1964 003e B12C      		mov r11,__zero_reg__
 1965 0040 A12C      		mov r10,__zero_reg__
 1966               	.LVL182:
 1967               	.L112:
  50:LUFA/LUFA/Drivers/USB/Core/AVR8/Template/Template_Endpoint_RW.c **** 	{
 1968               		.loc 3 50 8 is_stmt 1 view .LVU488
 1969 0042 0115      		cp r16,__zero_reg__
 1970 0044 1105      		cpc r17,__zero_reg__
 1971 0046 01F0      		breq .L109
  52:LUFA/LUFA/Drivers/USB/Core/AVR8/Template/Template_Endpoint_RW.c **** 		{
 1972               		.loc 3 52 3 view .LVU489
 1973               	.LBB312:
 1974               	.LBI312:
 418:LUFA/LUFA/Drivers/USB/Core/AVR8/../AVR8/../AVR8/Endpoint_AVR8.h **** 			{
 1975               		.loc 2 418 23 view .LVU490
 1976               	.LBB313:
 420:LUFA/LUFA/Drivers/USB/Core/AVR8/../AVR8/../AVR8/Endpoint_AVR8.h **** 			}
 1977               		.loc 2 420 5 view .LVU491
 420:LUFA/LUFA/Drivers/USB/Core/AVR8/../AVR8/../AVR8/Endpoint_AVR8.h **** 			}
 1978               		.loc 2 420 14 is_stmt 0 view .LVU492
 1979 0048 8091 E800 		lds r24,232
 1980               	.LBE313:
 1981               	.LBE312:
  52:LUFA/LUFA/Drivers/USB/Core/AVR8/Template/Template_Endpoint_RW.c **** 		{
 1982               		.loc 3 52 6 view .LVU493
 1983 004c 85FD      		sbrc r24,5
 1984 004e 00C0      		rjmp .L113
  54:LUFA/LUFA/Drivers/USB/Core/AVR8/Template/Template_Endpoint_RW.c **** 
 1985               		.loc 3 54 4 is_stmt 1 view .LVU494
 1986               	.LBB314:
 1987               	.LBI314:
 513:LUFA/LUFA/Drivers/USB/Core/AVR8/../AVR8/../AVR8/Endpoint_AVR8.h **** 			{
 1988               		.loc 2 513 23 view .LVU495
 1989               	.LBB315:
 516:LUFA/LUFA/Drivers/USB/Core/AVR8/../AVR8/../AVR8/Endpoint_AVR8.h **** 				#else
 1990               		.loc 2 516 6 view .LVU496
 516:LUFA/LUFA/Drivers/USB/Core/AVR8/../AVR8/../AVR8/Endpoint_AVR8.h **** 				#else
 1991               		.loc 2 516 13 is_stmt 0 view .LVU497
 1992 0050 8091 E800 		lds r24,232
 1993 0054 8E77      		andi r24,lo8(126)
 1994 0056 8093 E800 		sts 232,r24
 1995               	.LBE315:
 1996               	.LBE314:
  57:LUFA/LUFA/Drivers/USB/Core/AVR8/Template/Template_Endpoint_RW.c **** 			#endif
 1997               		.loc 3 57 4 is_stmt 1 view .LVU498
 1998 005a 0E94 0000 		call USB_USBTask
 1999               	.LVL183:
  60:LUFA/LUFA/Drivers/USB/Core/AVR8/Template/Template_Endpoint_RW.c **** 			{
 2000               		.loc 3 60 4 view .LVU499
  60:LUFA/LUFA/Drivers/USB/Core/AVR8/Template/Template_Endpoint_RW.c **** 			{
 2001               		.loc 3 60 7 is_stmt 0 view .LVU500
 2002 005e E114      		cp r14,__zero_reg__
 2003 0060 F104      		cpc r15,__zero_reg__
 2004 0062 01F0      		breq .L114
  62:LUFA/LUFA/Drivers/USB/Core/AVR8/Template/Template_Endpoint_RW.c **** 				return ENDPOINT_RWSTREAM_IncompleteTransfer;
 2005               		.loc 3 62 5 is_stmt 1 view .LVU501
  62:LUFA/LUFA/Drivers/USB/Core/AVR8/Template/Template_Endpoint_RW.c **** 				return ENDPOINT_RWSTREAM_IncompleteTransfer;
 2006               		.loc 3 62 21 is_stmt 0 view .LVU502
 2007 0064 F701      		movw r30,r14
 2008 0066 8081      		ld r24,Z
 2009 0068 9181      		ldd r25,Z+1
 2010 006a A80E      		add r10,r24
 2011 006c B91E      		adc r11,r25
 2012               	.LVL184:
  62:LUFA/LUFA/Drivers/USB/Core/AVR8/Template/Template_Endpoint_RW.c **** 				return ENDPOINT_RWSTREAM_IncompleteTransfer;
 2013               		.loc 3 62 21 view .LVU503
 2014 006e B182      		std Z+1,r11
 2015 0070 A082      		st Z,r10
  63:LUFA/LUFA/Drivers/USB/Core/AVR8/Template/Template_Endpoint_RW.c **** 			}
 2016               		.loc 3 63 5 is_stmt 1 view .LVU504
  63:LUFA/LUFA/Drivers/USB/Core/AVR8/Template/Template_Endpoint_RW.c **** 			}
 2017               		.loc 3 63 12 is_stmt 0 view .LVU505
 2018 0072 85E0      		ldi r24,lo8(5)
 2019 0074 D82E      		mov r13,r24
 2020               	.LVL185:
 2021               	.L109:
 2022               		.loc 3 79 1 view .LVU506
 2023 0076 8D2D      		mov r24,r13
 2024               	/* epilogue start */
 2025 0078 DF91      		pop r29
 2026 007a CF91      		pop r28
 2027 007c 1F91      		pop r17
 2028 007e 0F91      		pop r16
 2029               	.LVL186:
 2030               		.loc 3 79 1 view .LVU507
 2031 0080 FF90      		pop r15
 2032 0082 EF90      		pop r14
 2033               	.LVL187:
 2034               		.loc 3 79 1 view .LVU508
 2035 0084 DF90      		pop r13
 2036 0086 BF90      		pop r11
 2037 0088 AF90      		pop r10
 2038 008a 0895      		ret
 2039               	.LVL188:
 2040               	.L114:
  66:LUFA/LUFA/Drivers/USB/Core/AVR8/Template/Template_Endpoint_RW.c **** 			  return ErrorCode;
 2041               		.loc 3 66 4 is_stmt 1 view .LVU509
  66:LUFA/LUFA/Drivers/USB/Core/AVR8/Template/Template_Endpoint_RW.c **** 			  return ErrorCode;
 2042               		.loc 3 66 21 is_stmt 0 view .LVU510
 2043 008c 0E94 0000 		call Endpoint_WaitUntilReady
 2044               	.LVL189:
  66:LUFA/LUFA/Drivers/USB/Core/AVR8/Template/Template_Endpoint_RW.c **** 			  return ErrorCode;
 2045               		.loc 3 66 7 view .LVU511
 2046 0090 8823      		tst r24
 2047 0092 01F0      		breq .L112
 2048 0094 D82E      		mov r13,r24
 2049 0096 00C0      		rjmp .L109
 2050               	.LVL190:
 2051               	.L113:
  71:LUFA/LUFA/Drivers/USB/Core/AVR8/Template/Template_Endpoint_RW.c **** 			TEMPLATE_BUFFER_MOVE(DataStream, 1);
 2052               		.loc 3 71 4 is_stmt 1 view .LVU512
 2053 0098 CE01      		movw r24,r28
 2054 009a 0E94 0000 		call eeprom_read_byte
 2055               	.LVL191:
 2056               	.LBB316:
 2057               	.LBI316:
 622:LUFA/LUFA/Drivers/USB/Core/AVR8/../AVR8/../AVR8/Endpoint_AVR8.h **** 			{
 2058               		.loc 2 622 23 view .LVU513
 2059               	.LBB317:
 624:LUFA/LUFA/Drivers/USB/Core/AVR8/../AVR8/../AVR8/Endpoint_AVR8.h **** 			}
 2060               		.loc 2 624 5 view .LVU514
 624:LUFA/LUFA/Drivers/USB/Core/AVR8/../AVR8/../AVR8/Endpoint_AVR8.h **** 			}
 2061               		.loc 2 624 12 is_stmt 0 view .LVU515
 2062 009e 8093 F100 		sts 241,r24
 2063               	.LVL192:
 624:LUFA/LUFA/Drivers/USB/Core/AVR8/../AVR8/../AVR8/Endpoint_AVR8.h **** 			}
 2064               		.loc 2 624 12 view .LVU516
 2065               	.LBE317:
 2066               	.LBE316:
  72:LUFA/LUFA/Drivers/USB/Core/AVR8/Template/Template_Endpoint_RW.c **** 			Length--;
 2067               		.loc 3 72 4 is_stmt 1 view .LVU517
 2068 00a2 2197      		sbiw r28,1
 2069               	.LVL193:
  73:LUFA/LUFA/Drivers/USB/Core/AVR8/Template/Template_Endpoint_RW.c **** 			BytesInTransfer++;
 2070               		.loc 3 73 4 view .LVU518
  73:LUFA/LUFA/Drivers/USB/Core/AVR8/Template/Template_Endpoint_RW.c **** 			BytesInTransfer++;
 2071               		.loc 3 73 10 is_stmt 0 view .LVU519
 2072 00a4 0150      		subi r16,1
 2073 00a6 1109      		sbc r17,__zero_reg__
 2074               	.LVL194:
  74:LUFA/LUFA/Drivers/USB/Core/AVR8/Template/Template_Endpoint_RW.c **** 		}
 2075               		.loc 3 74 4 is_stmt 1 view .LVU520
  74:LUFA/LUFA/Drivers/USB/Core/AVR8/Template/Template_Endpoint_RW.c **** 		}
 2076               		.loc 3 74 19 is_stmt 0 view .LVU521
 2077 00a8 FFEF      		ldi r31,-1
 2078 00aa AF1A      		sub r10,r31
 2079 00ac BF0A      		sbc r11,r31
 2080               	.LVL195:
  74:LUFA/LUFA/Drivers/USB/Core/AVR8/Template/Template_Endpoint_RW.c **** 		}
 2081               		.loc 3 74 19 view .LVU522
 2082 00ae 00C0      		rjmp .L112
 2083               		.cfi_endproc
 2084               	.LFE90:
 2086               		.section	.text.Endpoint_Read_EStream_LE,"ax",@progbits
 2087               	.global	Endpoint_Read_EStream_LE
 2089               	Endpoint_Read_EStream_LE:
 2090               	.LVL196:
 2091               	.LFB91:
  36:LUFA/LUFA/Drivers/USB/Core/AVR8/Template/Template_Endpoint_RW.c **** 	uint8_t* DataStream      = ((uint8_t*)Buffer + TEMPLATE_BUFFER_OFFSET(Length));
 2092               		.loc 3 36 1 is_stmt 1 view -0
 2093               		.cfi_startproc
  36:LUFA/LUFA/Drivers/USB/Core/AVR8/Template/Template_Endpoint_RW.c **** 	uint8_t* DataStream      = ((uint8_t*)Buffer + TEMPLATE_BUFFER_OFFSET(Length));
 2094               		.loc 3 36 1 is_stmt 0 view .LVU524
 2095 0000 AF92      		push r10
 2096               	.LCFI86:
 2097               		.cfi_def_cfa_offset 3
 2098               		.cfi_offset 10, -2
 2099 0002 BF92      		push r11
 2100               	.LCFI87:
 2101               		.cfi_def_cfa_offset 4
 2102               		.cfi_offset 11, -3
 2103 0004 DF92      		push r13
 2104               	.LCFI88:
 2105               		.cfi_def_cfa_offset 5
 2106               		.cfi_offset 13, -4
 2107 0006 EF92      		push r14
 2108               	.LCFI89:
 2109               		.cfi_def_cfa_offset 6
 2110               		.cfi_offset 14, -5
 2111 0008 FF92      		push r15
 2112               	.LCFI90:
 2113               		.cfi_def_cfa_offset 7
 2114               		.cfi_offset 15, -6
 2115 000a 0F93      		push r16
 2116               	.LCFI91:
 2117               		.cfi_def_cfa_offset 8
 2118               		.cfi_offset 16, -7
 2119 000c 1F93      		push r17
 2120               	.LCFI92:
 2121               		.cfi_def_cfa_offset 9
 2122               		.cfi_offset 17, -8
 2123 000e CF93      		push r28
 2124               	.LCFI93:
 2125               		.cfi_def_cfa_offset 10
 2126               		.cfi_offset 28, -9
 2127 0010 DF93      		push r29
 2128               	.LCFI94:
 2129               		.cfi_def_cfa_offset 11
 2130               		.cfi_offset 29, -10
 2131               	/* prologue: function */
 2132               	/* frame size = 0 */
 2133               	/* stack size = 9 */
 2134               	.L__stack_usage = 9
 2135 0012 8C01      		movw r16,r24
 2136 0014 EB01      		movw r28,r22
 2137 0016 7A01      		movw r14,r20
  37:LUFA/LUFA/Drivers/USB/Core/AVR8/Template/Template_Endpoint_RW.c **** 	uint16_t BytesInTransfer = 0;
 2138               		.loc 3 37 2 is_stmt 1 view .LVU525
 2139               	.LVL197:
  38:LUFA/LUFA/Drivers/USB/Core/AVR8/Template/Template_Endpoint_RW.c **** 	uint8_t  ErrorCode;
 2140               		.loc 3 38 2 view .LVU526
  39:LUFA/LUFA/Drivers/USB/Core/AVR8/Template/Template_Endpoint_RW.c **** 
 2141               		.loc 3 39 2 view .LVU527
  41:LUFA/LUFA/Drivers/USB/Core/AVR8/Template/Template_Endpoint_RW.c **** 	  return ErrorCode;
 2142               		.loc 3 41 2 view .LVU528
  41:LUFA/LUFA/Drivers/USB/Core/AVR8/Template/Template_Endpoint_RW.c **** 	  return ErrorCode;
 2143               		.loc 3 41 19 is_stmt 0 view .LVU529
 2144 0018 0E94 0000 		call Endpoint_WaitUntilReady
 2145               	.LVL198:
  41:LUFA/LUFA/Drivers/USB/Core/AVR8/Template/Template_Endpoint_RW.c **** 	  return ErrorCode;
 2146               		.loc 3 41 19 view .LVU530
 2147 001c D82E      		mov r13,r24
 2148               	.LVL199:
  41:LUFA/LUFA/Drivers/USB/Core/AVR8/Template/Template_Endpoint_RW.c **** 	  return ErrorCode;
 2149               		.loc 3 41 5 view .LVU531
 2150 001e 8111      		cpse r24,__zero_reg__
 2151 0020 00C0      		rjmp .L121
  44:LUFA/LUFA/Drivers/USB/Core/AVR8/Template/Template_Endpoint_RW.c **** 	{
 2152               		.loc 3 44 2 is_stmt 1 view .LVU532
  44:LUFA/LUFA/Drivers/USB/Core/AVR8/Template/Template_Endpoint_RW.c **** 	{
 2153               		.loc 3 44 5 is_stmt 0 view .LVU533
 2154 0022 E114      		cp r14,__zero_reg__
 2155 0024 F104      		cpc r15,__zero_reg__
 2156 0026 01F0      		breq .L123
  46:LUFA/LUFA/Drivers/USB/Core/AVR8/Template/Template_Endpoint_RW.c **** 		TEMPLATE_BUFFER_MOVE(DataStream, *BytesProcessed);
 2157               		.loc 3 46 3 is_stmt 1 view .LVU534
  46:LUFA/LUFA/Drivers/USB/Core/AVR8/Template/Template_Endpoint_RW.c **** 		TEMPLATE_BUFFER_MOVE(DataStream, *BytesProcessed);
 2158               		.loc 3 46 13 is_stmt 0 view .LVU535
 2159 0028 F701      		movw r30,r14
 2160 002a 8081      		ld r24,Z
 2161 002c 9181      		ldd r25,Z+1
  46:LUFA/LUFA/Drivers/USB/Core/AVR8/Template/Template_Endpoint_RW.c **** 		TEMPLATE_BUFFER_MOVE(DataStream, *BytesProcessed);
 2162               		.loc 3 46 10 view .LVU536
 2163 002e C81B      		sub r28,r24
 2164 0030 D90B      		sbc r29,r25
 2165               	.LVL200:
  47:LUFA/LUFA/Drivers/USB/Core/AVR8/Template/Template_Endpoint_RW.c **** 	}
 2166               		.loc 3 47 3 is_stmt 1 view .LVU537
 2167 0032 080F      		add r16,r24
 2168 0034 191F      		adc r17,r25
 2169               	.LVL201:
 2170               	.L123:
  36:LUFA/LUFA/Drivers/USB/Core/AVR8/Template/Template_Endpoint_RW.c **** 	uint8_t* DataStream      = ((uint8_t*)Buffer + TEMPLATE_BUFFER_OFFSET(Length));
 2171               		.loc 3 36 1 is_stmt 0 view .LVU538
 2172 0036 B12C      		mov r11,__zero_reg__
 2173 0038 A12C      		mov r10,__zero_reg__
 2174               	.LVL202:
 2175               	.L124:
  50:LUFA/LUFA/Drivers/USB/Core/AVR8/Template/Template_Endpoint_RW.c **** 	{
 2176               		.loc 3 50 8 is_stmt 1 view .LVU539
 2177 003a 2097      		sbiw r28,0
 2178 003c 01F0      		breq .L121
  52:LUFA/LUFA/Drivers/USB/Core/AVR8/Template/Template_Endpoint_RW.c **** 		{
 2179               		.loc 3 52 3 view .LVU540
 2180               	.LBB318:
 2181               	.LBI318:
 418:LUFA/LUFA/Drivers/USB/Core/AVR8/../AVR8/../AVR8/Endpoint_AVR8.h **** 			{
 2182               		.loc 2 418 23 view .LVU541
 2183               	.LBB319:
 420:LUFA/LUFA/Drivers/USB/Core/AVR8/../AVR8/../AVR8/Endpoint_AVR8.h **** 			}
 2184               		.loc 2 420 5 view .LVU542
 420:LUFA/LUFA/Drivers/USB/Core/AVR8/../AVR8/../AVR8/Endpoint_AVR8.h **** 			}
 2185               		.loc 2 420 14 is_stmt 0 view .LVU543
 2186 003e 8091 E800 		lds r24,232
 2187               	.LBE319:
 2188               	.LBE318:
  52:LUFA/LUFA/Drivers/USB/Core/AVR8/Template/Template_Endpoint_RW.c **** 		{
 2189               		.loc 3 52 6 view .LVU544
 2190 0042 85FD      		sbrc r24,5
 2191 0044 00C0      		rjmp .L125
  54:LUFA/LUFA/Drivers/USB/Core/AVR8/Template/Template_Endpoint_RW.c **** 
 2192               		.loc 3 54 4 is_stmt 1 view .LVU545
 2193               	.LBB320:
 2194               	.LBI320:
 528:LUFA/LUFA/Drivers/USB/Core/AVR8/../AVR8/../AVR8/Endpoint_AVR8.h **** 			{
 2195               		.loc 2 528 23 view .LVU546
 2196               	.LBB321:
 531:LUFA/LUFA/Drivers/USB/Core/AVR8/../AVR8/../AVR8/Endpoint_AVR8.h **** 				#else
 2197               		.loc 2 531 6 view .LVU547
 531:LUFA/LUFA/Drivers/USB/Core/AVR8/../AVR8/../AVR8/Endpoint_AVR8.h **** 				#else
 2198               		.loc 2 531 13 is_stmt 0 view .LVU548
 2199 0046 8091 E800 		lds r24,232
 2200 004a 8B77      		andi r24,lo8(123)
 2201 004c 8093 E800 		sts 232,r24
 2202               	.LBE321:
 2203               	.LBE320:
  57:LUFA/LUFA/Drivers/USB/Core/AVR8/Template/Template_Endpoint_RW.c **** 			#endif
 2204               		.loc 3 57 4 is_stmt 1 view .LVU549
 2205 0050 0E94 0000 		call USB_USBTask
 2206               	.LVL203:
  60:LUFA/LUFA/Drivers/USB/Core/AVR8/Template/Template_Endpoint_RW.c **** 			{
 2207               		.loc 3 60 4 view .LVU550
  60:LUFA/LUFA/Drivers/USB/Core/AVR8/Template/Template_Endpoint_RW.c **** 			{
 2208               		.loc 3 60 7 is_stmt 0 view .LVU551
 2209 0054 E114      		cp r14,__zero_reg__
 2210 0056 F104      		cpc r15,__zero_reg__
 2211 0058 01F0      		breq .L126
  62:LUFA/LUFA/Drivers/USB/Core/AVR8/Template/Template_Endpoint_RW.c **** 				return ENDPOINT_RWSTREAM_IncompleteTransfer;
 2212               		.loc 3 62 5 is_stmt 1 view .LVU552
  62:LUFA/LUFA/Drivers/USB/Core/AVR8/Template/Template_Endpoint_RW.c **** 				return ENDPOINT_RWSTREAM_IncompleteTransfer;
 2213               		.loc 3 62 21 is_stmt 0 view .LVU553
 2214 005a F701      		movw r30,r14
 2215 005c 8081      		ld r24,Z
 2216 005e 9181      		ldd r25,Z+1
 2217 0060 A80E      		add r10,r24
 2218 0062 B91E      		adc r11,r25
 2219               	.LVL204:
  62:LUFA/LUFA/Drivers/USB/Core/AVR8/Template/Template_Endpoint_RW.c **** 				return ENDPOINT_RWSTREAM_IncompleteTransfer;
 2220               		.loc 3 62 21 view .LVU554
 2221 0064 B182      		std Z+1,r11
 2222 0066 A082      		st Z,r10
  63:LUFA/LUFA/Drivers/USB/Core/AVR8/Template/Template_Endpoint_RW.c **** 			}
 2223               		.loc 3 63 5 is_stmt 1 view .LVU555
  63:LUFA/LUFA/Drivers/USB/Core/AVR8/Template/Template_Endpoint_RW.c **** 			}
 2224               		.loc 3 63 12 is_stmt 0 view .LVU556
 2225 0068 85E0      		ldi r24,lo8(5)
 2226 006a D82E      		mov r13,r24
 2227               	.L121:
 2228               		.loc 3 79 1 view .LVU557
 2229 006c 8D2D      		mov r24,r13
 2230               	/* epilogue start */
 2231 006e DF91      		pop r29
 2232 0070 CF91      		pop r28
 2233               	.LVL205:
 2234               		.loc 3 79 1 view .LVU558
 2235 0072 1F91      		pop r17
 2236 0074 0F91      		pop r16
 2237               	.LVL206:
 2238               		.loc 3 79 1 view .LVU559
 2239 0076 FF90      		pop r15
 2240 0078 EF90      		pop r14
 2241               	.LVL207:
 2242               		.loc 3 79 1 view .LVU560
 2243 007a DF90      		pop r13
 2244 007c BF90      		pop r11
 2245 007e AF90      		pop r10
 2246 0080 0895      		ret
 2247               	.LVL208:
 2248               	.L126:
  66:LUFA/LUFA/Drivers/USB/Core/AVR8/Template/Template_Endpoint_RW.c **** 			  return ErrorCode;
 2249               		.loc 3 66 4 is_stmt 1 view .LVU561
  66:LUFA/LUFA/Drivers/USB/Core/AVR8/Template/Template_Endpoint_RW.c **** 			  return ErrorCode;
 2250               		.loc 3 66 21 is_stmt 0 view .LVU562
 2251 0082 0E94 0000 		call Endpoint_WaitUntilReady
 2252               	.LVL209:
  66:LUFA/LUFA/Drivers/USB/Core/AVR8/Template/Template_Endpoint_RW.c **** 			  return ErrorCode;
 2253               		.loc 3 66 7 view .LVU563
 2254 0086 8823      		tst r24
 2255 0088 01F0      		breq .L124
 2256 008a D82E      		mov r13,r24
 2257 008c 00C0      		rjmp .L121
 2258               	.LVL210:
 2259               	.L125:
  71:LUFA/LUFA/Drivers/USB/Core/AVR8/Template/Template_Endpoint_RW.c **** 			TEMPLATE_BUFFER_MOVE(DataStream, 1);
 2260               		.loc 3 71 4 is_stmt 1 view .LVU564
 2261               	.LBB322:
 2262               	.LBI322:
 610:LUFA/LUFA/Drivers/USB/Core/AVR8/../AVR8/../AVR8/Endpoint_AVR8.h **** 			{
 2263               		.loc 2 610 26 view .LVU565
 2264               	.LBB323:
 612:LUFA/LUFA/Drivers/USB/Core/AVR8/../AVR8/../AVR8/Endpoint_AVR8.h **** 			}
 2265               		.loc 2 612 5 view .LVU566
 612:LUFA/LUFA/Drivers/USB/Core/AVR8/../AVR8/../AVR8/Endpoint_AVR8.h **** 			}
 2266               		.loc 2 612 12 is_stmt 0 view .LVU567
 2267 008e 6091 F100 		lds r22,241
 2268               	.LBE323:
 2269               	.LBE322:
  71:LUFA/LUFA/Drivers/USB/Core/AVR8/Template/Template_Endpoint_RW.c **** 			TEMPLATE_BUFFER_MOVE(DataStream, 1);
 2270               		.loc 3 71 4 view .LVU568
 2271 0092 C801      		movw r24,r16
 2272 0094 0E94 0000 		call eeprom_update_byte
 2273               	.LVL211:
  72:LUFA/LUFA/Drivers/USB/Core/AVR8/Template/Template_Endpoint_RW.c **** 			Length--;
 2274               		.loc 3 72 4 is_stmt 1 view .LVU569
 2275 0098 0F5F      		subi r16,-1
 2276 009a 1F4F      		sbci r17,-1
 2277               	.LVL212:
  73:LUFA/LUFA/Drivers/USB/Core/AVR8/Template/Template_Endpoint_RW.c **** 			BytesInTransfer++;
 2278               		.loc 3 73 4 view .LVU570
  73:LUFA/LUFA/Drivers/USB/Core/AVR8/Template/Template_Endpoint_RW.c **** 			BytesInTransfer++;
 2279               		.loc 3 73 10 is_stmt 0 view .LVU571
 2280 009c 2197      		sbiw r28,1
 2281               	.LVL213:
  74:LUFA/LUFA/Drivers/USB/Core/AVR8/Template/Template_Endpoint_RW.c **** 		}
 2282               		.loc 3 74 4 is_stmt 1 view .LVU572
  74:LUFA/LUFA/Drivers/USB/Core/AVR8/Template/Template_Endpoint_RW.c **** 		}
 2283               		.loc 3 74 19 is_stmt 0 view .LVU573
 2284 009e FFEF      		ldi r31,-1
 2285 00a0 AF1A      		sub r10,r31
 2286 00a2 BF0A      		sbc r11,r31
 2287               	.LVL214:
  74:LUFA/LUFA/Drivers/USB/Core/AVR8/Template/Template_Endpoint_RW.c **** 		}
 2288               		.loc 3 74 19 view .LVU574
 2289 00a4 00C0      		rjmp .L124
 2290               		.cfi_endproc
 2291               	.LFE91:
 2293               		.section	.text.Endpoint_Read_EStream_BE,"ax",@progbits
 2294               	.global	Endpoint_Read_EStream_BE
 2296               	Endpoint_Read_EStream_BE:
 2297               	.LVL215:
 2298               	.LFB92:
  36:LUFA/LUFA/Drivers/USB/Core/AVR8/Template/Template_Endpoint_RW.c **** 	uint8_t* DataStream      = ((uint8_t*)Buffer + TEMPLATE_BUFFER_OFFSET(Length));
 2299               		.loc 3 36 1 is_stmt 1 view -0
 2300               		.cfi_startproc
  36:LUFA/LUFA/Drivers/USB/Core/AVR8/Template/Template_Endpoint_RW.c **** 	uint8_t* DataStream      = ((uint8_t*)Buffer + TEMPLATE_BUFFER_OFFSET(Length));
 2301               		.loc 3 36 1 is_stmt 0 view .LVU576
 2302 0000 AF92      		push r10
 2303               	.LCFI95:
 2304               		.cfi_def_cfa_offset 3
 2305               		.cfi_offset 10, -2
 2306 0002 BF92      		push r11
 2307               	.LCFI96:
 2308               		.cfi_def_cfa_offset 4
 2309               		.cfi_offset 11, -3
 2310 0004 DF92      		push r13
 2311               	.LCFI97:
 2312               		.cfi_def_cfa_offset 5
 2313               		.cfi_offset 13, -4
 2314 0006 EF92      		push r14
 2315               	.LCFI98:
 2316               		.cfi_def_cfa_offset 6
 2317               		.cfi_offset 14, -5
 2318 0008 FF92      		push r15
 2319               	.LCFI99:
 2320               		.cfi_def_cfa_offset 7
 2321               		.cfi_offset 15, -6
 2322 000a 0F93      		push r16
 2323               	.LCFI100:
 2324               		.cfi_def_cfa_offset 8
 2325               		.cfi_offset 16, -7
 2326 000c 1F93      		push r17
 2327               	.LCFI101:
 2328               		.cfi_def_cfa_offset 9
 2329               		.cfi_offset 17, -8
 2330 000e CF93      		push r28
 2331               	.LCFI102:
 2332               		.cfi_def_cfa_offset 10
 2333               		.cfi_offset 28, -9
 2334 0010 DF93      		push r29
 2335               	.LCFI103:
 2336               		.cfi_def_cfa_offset 11
 2337               		.cfi_offset 29, -10
 2338               	/* prologue: function */
 2339               	/* frame size = 0 */
 2340               	/* stack size = 9 */
 2341               	.L__stack_usage = 9
 2342 0012 EC01      		movw r28,r24
 2343 0014 8B01      		movw r16,r22
 2344 0016 7A01      		movw r14,r20
  37:LUFA/LUFA/Drivers/USB/Core/AVR8/Template/Template_Endpoint_RW.c **** 	uint16_t BytesInTransfer = 0;
 2345               		.loc 3 37 2 is_stmt 1 view .LVU577
 2346               	.LVL216:
  38:LUFA/LUFA/Drivers/USB/Core/AVR8/Template/Template_Endpoint_RW.c **** 	uint8_t  ErrorCode;
 2347               		.loc 3 38 2 view .LVU578
  39:LUFA/LUFA/Drivers/USB/Core/AVR8/Template/Template_Endpoint_RW.c **** 
 2348               		.loc 3 39 2 view .LVU579
  41:LUFA/LUFA/Drivers/USB/Core/AVR8/Template/Template_Endpoint_RW.c **** 	  return ErrorCode;
 2349               		.loc 3 41 2 view .LVU580
  41:LUFA/LUFA/Drivers/USB/Core/AVR8/Template/Template_Endpoint_RW.c **** 	  return ErrorCode;
 2350               		.loc 3 41 19 is_stmt 0 view .LVU581
 2351 0018 0E94 0000 		call Endpoint_WaitUntilReady
 2352               	.LVL217:
  41:LUFA/LUFA/Drivers/USB/Core/AVR8/Template/Template_Endpoint_RW.c **** 	  return ErrorCode;
 2353               		.loc 3 41 19 view .LVU582
 2354 001c D82E      		mov r13,r24
 2355               	.LVL218:
  41:LUFA/LUFA/Drivers/USB/Core/AVR8/Template/Template_Endpoint_RW.c **** 	  return ErrorCode;
 2356               		.loc 3 41 5 view .LVU583
 2357 001e 8111      		cpse r24,__zero_reg__
 2358 0020 00C0      		rjmp .L133
  37:LUFA/LUFA/Drivers/USB/Core/AVR8/Template/Template_Endpoint_RW.c **** 	uint16_t BytesInTransfer = 0;
 2359               		.loc 3 37 47 view .LVU584
 2360 0022 C801      		movw r24,r16
 2361 0024 0197      		sbiw r24,1
 2362               	.LVL219:
  37:LUFA/LUFA/Drivers/USB/Core/AVR8/Template/Template_Endpoint_RW.c **** 	uint16_t BytesInTransfer = 0;
 2363               		.loc 3 37 11 view .LVU585
 2364 0026 C80F      		add r28,r24
 2365 0028 D91F      		adc r29,r25
 2366               	.LVL220:
  44:LUFA/LUFA/Drivers/USB/Core/AVR8/Template/Template_Endpoint_RW.c **** 	{
 2367               		.loc 3 44 2 is_stmt 1 view .LVU586
  44:LUFA/LUFA/Drivers/USB/Core/AVR8/Template/Template_Endpoint_RW.c **** 	{
 2368               		.loc 3 44 5 is_stmt 0 view .LVU587
 2369 002a E114      		cp r14,__zero_reg__
 2370 002c F104      		cpc r15,__zero_reg__
 2371 002e 01F0      		breq .L135
  46:LUFA/LUFA/Drivers/USB/Core/AVR8/Template/Template_Endpoint_RW.c **** 		TEMPLATE_BUFFER_MOVE(DataStream, *BytesProcessed);
 2372               		.loc 3 46 3 is_stmt 1 view .LVU588
  46:LUFA/LUFA/Drivers/USB/Core/AVR8/Template/Template_Endpoint_RW.c **** 		TEMPLATE_BUFFER_MOVE(DataStream, *BytesProcessed);
 2373               		.loc 3 46 13 is_stmt 0 view .LVU589
 2374 0030 F701      		movw r30,r14
 2375 0032 8081      		ld r24,Z
 2376 0034 9181      		ldd r25,Z+1
 2377               	.LVL221:
  46:LUFA/LUFA/Drivers/USB/Core/AVR8/Template/Template_Endpoint_RW.c **** 		TEMPLATE_BUFFER_MOVE(DataStream, *BytesProcessed);
 2378               		.loc 3 46 10 view .LVU590
 2379 0036 081B      		sub r16,r24
 2380 0038 190B      		sbc r17,r25
 2381               	.LVL222:
  47:LUFA/LUFA/Drivers/USB/Core/AVR8/Template/Template_Endpoint_RW.c **** 	}
 2382               		.loc 3 47 3 is_stmt 1 view .LVU591
 2383 003a C81B      		sub r28,r24
 2384 003c D90B      		sbc r29,r25
 2385               	.LVL223:
 2386               	.L135:
  36:LUFA/LUFA/Drivers/USB/Core/AVR8/Template/Template_Endpoint_RW.c **** 	uint8_t* DataStream      = ((uint8_t*)Buffer + TEMPLATE_BUFFER_OFFSET(Length));
 2387               		.loc 3 36 1 is_stmt 0 view .LVU592
 2388 003e B12C      		mov r11,__zero_reg__
 2389 0040 A12C      		mov r10,__zero_reg__
 2390               	.LVL224:
 2391               	.L136:
  50:LUFA/LUFA/Drivers/USB/Core/AVR8/Template/Template_Endpoint_RW.c **** 	{
 2392               		.loc 3 50 8 is_stmt 1 view .LVU593
 2393 0042 0115      		cp r16,__zero_reg__
 2394 0044 1105      		cpc r17,__zero_reg__
 2395 0046 01F0      		breq .L133
  52:LUFA/LUFA/Drivers/USB/Core/AVR8/Template/Template_Endpoint_RW.c **** 		{
 2396               		.loc 3 52 3 view .LVU594
 2397               	.LBB324:
 2398               	.LBI324:
 418:LUFA/LUFA/Drivers/USB/Core/AVR8/../AVR8/../AVR8/Endpoint_AVR8.h **** 			{
 2399               		.loc 2 418 23 view .LVU595
 2400               	.LBB325:
 420:LUFA/LUFA/Drivers/USB/Core/AVR8/../AVR8/../AVR8/Endpoint_AVR8.h **** 			}
 2401               		.loc 2 420 5 view .LVU596
 420:LUFA/LUFA/Drivers/USB/Core/AVR8/../AVR8/../AVR8/Endpoint_AVR8.h **** 			}
 2402               		.loc 2 420 14 is_stmt 0 view .LVU597
 2403 0048 8091 E800 		lds r24,232
 2404               	.LBE325:
 2405               	.LBE324:
  52:LUFA/LUFA/Drivers/USB/Core/AVR8/Template/Template_Endpoint_RW.c **** 		{
 2406               		.loc 3 52 6 view .LVU598
 2407 004c 85FD      		sbrc r24,5
 2408 004e 00C0      		rjmp .L137
  54:LUFA/LUFA/Drivers/USB/Core/AVR8/Template/Template_Endpoint_RW.c **** 
 2409               		.loc 3 54 4 is_stmt 1 view .LVU599
 2410               	.LBB326:
 2411               	.LBI326:
 528:LUFA/LUFA/Drivers/USB/Core/AVR8/../AVR8/../AVR8/Endpoint_AVR8.h **** 			{
 2412               		.loc 2 528 23 view .LVU600
 2413               	.LBB327:
 531:LUFA/LUFA/Drivers/USB/Core/AVR8/../AVR8/../AVR8/Endpoint_AVR8.h **** 				#else
 2414               		.loc 2 531 6 view .LVU601
 531:LUFA/LUFA/Drivers/USB/Core/AVR8/../AVR8/../AVR8/Endpoint_AVR8.h **** 				#else
 2415               		.loc 2 531 13 is_stmt 0 view .LVU602
 2416 0050 8091 E800 		lds r24,232
 2417 0054 8B77      		andi r24,lo8(123)
 2418 0056 8093 E800 		sts 232,r24
 2419               	.LBE327:
 2420               	.LBE326:
  57:LUFA/LUFA/Drivers/USB/Core/AVR8/Template/Template_Endpoint_RW.c **** 			#endif
 2421               		.loc 3 57 4 is_stmt 1 view .LVU603
 2422 005a 0E94 0000 		call USB_USBTask
 2423               	.LVL225:
  60:LUFA/LUFA/Drivers/USB/Core/AVR8/Template/Template_Endpoint_RW.c **** 			{
 2424               		.loc 3 60 4 view .LVU604
  60:LUFA/LUFA/Drivers/USB/Core/AVR8/Template/Template_Endpoint_RW.c **** 			{
 2425               		.loc 3 60 7 is_stmt 0 view .LVU605
 2426 005e E114      		cp r14,__zero_reg__
 2427 0060 F104      		cpc r15,__zero_reg__
 2428 0062 01F0      		breq .L138
  62:LUFA/LUFA/Drivers/USB/Core/AVR8/Template/Template_Endpoint_RW.c **** 				return ENDPOINT_RWSTREAM_IncompleteTransfer;
 2429               		.loc 3 62 5 is_stmt 1 view .LVU606
  62:LUFA/LUFA/Drivers/USB/Core/AVR8/Template/Template_Endpoint_RW.c **** 				return ENDPOINT_RWSTREAM_IncompleteTransfer;
 2430               		.loc 3 62 21 is_stmt 0 view .LVU607
 2431 0064 F701      		movw r30,r14
 2432 0066 8081      		ld r24,Z
 2433 0068 9181      		ldd r25,Z+1
 2434 006a A80E      		add r10,r24
 2435 006c B91E      		adc r11,r25
 2436               	.LVL226:
  62:LUFA/LUFA/Drivers/USB/Core/AVR8/Template/Template_Endpoint_RW.c **** 				return ENDPOINT_RWSTREAM_IncompleteTransfer;
 2437               		.loc 3 62 21 view .LVU608
 2438 006e B182      		std Z+1,r11
 2439 0070 A082      		st Z,r10
  63:LUFA/LUFA/Drivers/USB/Core/AVR8/Template/Template_Endpoint_RW.c **** 			}
 2440               		.loc 3 63 5 is_stmt 1 view .LVU609
  63:LUFA/LUFA/Drivers/USB/Core/AVR8/Template/Template_Endpoint_RW.c **** 			}
 2441               		.loc 3 63 12 is_stmt 0 view .LVU610
 2442 0072 85E0      		ldi r24,lo8(5)
 2443 0074 D82E      		mov r13,r24
 2444               	.LVL227:
 2445               	.L133:
 2446               		.loc 3 79 1 view .LVU611
 2447 0076 8D2D      		mov r24,r13
 2448               	/* epilogue start */
 2449 0078 DF91      		pop r29
 2450 007a CF91      		pop r28
 2451 007c 1F91      		pop r17
 2452 007e 0F91      		pop r16
 2453               	.LVL228:
 2454               		.loc 3 79 1 view .LVU612
 2455 0080 FF90      		pop r15
 2456 0082 EF90      		pop r14
 2457               	.LVL229:
 2458               		.loc 3 79 1 view .LVU613
 2459 0084 DF90      		pop r13
 2460 0086 BF90      		pop r11
 2461 0088 AF90      		pop r10
 2462 008a 0895      		ret
 2463               	.LVL230:
 2464               	.L138:
  66:LUFA/LUFA/Drivers/USB/Core/AVR8/Template/Template_Endpoint_RW.c **** 			  return ErrorCode;
 2465               		.loc 3 66 4 is_stmt 1 view .LVU614
  66:LUFA/LUFA/Drivers/USB/Core/AVR8/Template/Template_Endpoint_RW.c **** 			  return ErrorCode;
 2466               		.loc 3 66 21 is_stmt 0 view .LVU615
 2467 008c 0E94 0000 		call Endpoint_WaitUntilReady
 2468               	.LVL231:
  66:LUFA/LUFA/Drivers/USB/Core/AVR8/Template/Template_Endpoint_RW.c **** 			  return ErrorCode;
 2469               		.loc 3 66 7 view .LVU616
 2470 0090 8823      		tst r24
 2471 0092 01F0      		breq .L136
 2472 0094 D82E      		mov r13,r24
 2473 0096 00C0      		rjmp .L133
 2474               	.LVL232:
 2475               	.L137:
  71:LUFA/LUFA/Drivers/USB/Core/AVR8/Template/Template_Endpoint_RW.c **** 			TEMPLATE_BUFFER_MOVE(DataStream, 1);
 2476               		.loc 3 71 4 is_stmt 1 view .LVU617
 2477               	.LBB328:
 2478               	.LBI328:
 610:LUFA/LUFA/Drivers/USB/Core/AVR8/../AVR8/../AVR8/Endpoint_AVR8.h **** 			{
 2479               		.loc 2 610 26 view .LVU618
 2480               	.LBB329:
 612:LUFA/LUFA/Drivers/USB/Core/AVR8/../AVR8/../AVR8/Endpoint_AVR8.h **** 			}
 2481               		.loc 2 612 5 view .LVU619
 612:LUFA/LUFA/Drivers/USB/Core/AVR8/../AVR8/../AVR8/Endpoint_AVR8.h **** 			}
 2482               		.loc 2 612 12 is_stmt 0 view .LVU620
 2483 0098 6091 F100 		lds r22,241
 2484               	.LBE329:
 2485               	.LBE328:
  71:LUFA/LUFA/Drivers/USB/Core/AVR8/Template/Template_Endpoint_RW.c **** 			TEMPLATE_BUFFER_MOVE(DataStream, 1);
 2486               		.loc 3 71 4 view .LVU621
 2487 009c CE01      		movw r24,r28
 2488 009e 0E94 0000 		call eeprom_update_byte
 2489               	.LVL233:
  72:LUFA/LUFA/Drivers/USB/Core/AVR8/Template/Template_Endpoint_RW.c **** 			Length--;
 2490               		.loc 3 72 4 is_stmt 1 view .LVU622
 2491 00a2 2197      		sbiw r28,1
 2492               	.LVL234:
  73:LUFA/LUFA/Drivers/USB/Core/AVR8/Template/Template_Endpoint_RW.c **** 			BytesInTransfer++;
 2493               		.loc 3 73 4 view .LVU623
  73:LUFA/LUFA/Drivers/USB/Core/AVR8/Template/Template_Endpoint_RW.c **** 			BytesInTransfer++;
 2494               		.loc 3 73 10 is_stmt 0 view .LVU624
 2495 00a4 0150      		subi r16,1
 2496 00a6 1109      		sbc r17,__zero_reg__
 2497               	.LVL235:
  74:LUFA/LUFA/Drivers/USB/Core/AVR8/Template/Template_Endpoint_RW.c **** 		}
 2498               		.loc 3 74 4 is_stmt 1 view .LVU625
  74:LUFA/LUFA/Drivers/USB/Core/AVR8/Template/Template_Endpoint_RW.c **** 		}
 2499               		.loc 3 74 19 is_stmt 0 view .LVU626
 2500 00a8 FFEF      		ldi r31,-1
 2501 00aa AF1A      		sub r10,r31
 2502 00ac BF0A      		sbc r11,r31
 2503               	.LVL236:
  74:LUFA/LUFA/Drivers/USB/Core/AVR8/Template/Template_Endpoint_RW.c **** 		}
 2504               		.loc 3 74 19 view .LVU627
 2505 00ae 00C0      		rjmp .L136
 2506               		.cfi_endproc
 2507               	.LFE92:
 2509               		.section	.text.Endpoint_Write_Control_Stream_LE,"ax",@progbits
 2510               	.global	Endpoint_Write_Control_Stream_LE
 2512               	Endpoint_Write_Control_Stream_LE:
 2513               	.LVL237:
 2514               	.LFB93:
 2515               		.file 4 "LUFA/LUFA/Drivers/USB/Core/AVR8/Template/Template_Endpoint_Control_W.c"
   1:LUFA/LUFA/Drivers/USB/Core/AVR8/Template/Template_Endpoint_Control_W.c **** /*
   2:LUFA/LUFA/Drivers/USB/Core/AVR8/Template/Template_Endpoint_Control_W.c ****              LUFA Library
   3:LUFA/LUFA/Drivers/USB/Core/AVR8/Template/Template_Endpoint_Control_W.c ****      Copyright (C) Dean Camera, 2011.
   4:LUFA/LUFA/Drivers/USB/Core/AVR8/Template/Template_Endpoint_Control_W.c **** 
   5:LUFA/LUFA/Drivers/USB/Core/AVR8/Template/Template_Endpoint_Control_W.c ****   dean [at] fourwalledcubicle [dot] com
   6:LUFA/LUFA/Drivers/USB/Core/AVR8/Template/Template_Endpoint_Control_W.c ****            www.lufa-lib.org
   7:LUFA/LUFA/Drivers/USB/Core/AVR8/Template/Template_Endpoint_Control_W.c **** */
   8:LUFA/LUFA/Drivers/USB/Core/AVR8/Template/Template_Endpoint_Control_W.c **** 
   9:LUFA/LUFA/Drivers/USB/Core/AVR8/Template/Template_Endpoint_Control_W.c **** /*
  10:LUFA/LUFA/Drivers/USB/Core/AVR8/Template/Template_Endpoint_Control_W.c ****   Copyright 2011  Dean Camera (dean [at] fourwalledcubicle [dot] com)
  11:LUFA/LUFA/Drivers/USB/Core/AVR8/Template/Template_Endpoint_Control_W.c **** 
  12:LUFA/LUFA/Drivers/USB/Core/AVR8/Template/Template_Endpoint_Control_W.c ****   Permission to use, copy, modify, distribute, and sell this
  13:LUFA/LUFA/Drivers/USB/Core/AVR8/Template/Template_Endpoint_Control_W.c ****   software and its documentation for any purpose is hereby granted
  14:LUFA/LUFA/Drivers/USB/Core/AVR8/Template/Template_Endpoint_Control_W.c ****   without fee, provided that the above copyright notice appear in
  15:LUFA/LUFA/Drivers/USB/Core/AVR8/Template/Template_Endpoint_Control_W.c ****   all copies and that both that the copyright notice and this
  16:LUFA/LUFA/Drivers/USB/Core/AVR8/Template/Template_Endpoint_Control_W.c ****   permission notice and warranty disclaimer appear in supporting
  17:LUFA/LUFA/Drivers/USB/Core/AVR8/Template/Template_Endpoint_Control_W.c ****   documentation, and that the name of the author not be used in
  18:LUFA/LUFA/Drivers/USB/Core/AVR8/Template/Template_Endpoint_Control_W.c ****   advertising or publicity pertaining to distribution of the
  19:LUFA/LUFA/Drivers/USB/Core/AVR8/Template/Template_Endpoint_Control_W.c ****   software without specific, written prior permission.
  20:LUFA/LUFA/Drivers/USB/Core/AVR8/Template/Template_Endpoint_Control_W.c **** 
  21:LUFA/LUFA/Drivers/USB/Core/AVR8/Template/Template_Endpoint_Control_W.c ****   The author disclaim all warranties with regard to this
  22:LUFA/LUFA/Drivers/USB/Core/AVR8/Template/Template_Endpoint_Control_W.c ****   software, including all implied warranties of merchantability
  23:LUFA/LUFA/Drivers/USB/Core/AVR8/Template/Template_Endpoint_Control_W.c ****   and fitness.  In no event shall the author be liable for any
  24:LUFA/LUFA/Drivers/USB/Core/AVR8/Template/Template_Endpoint_Control_W.c ****   special, indirect or consequential damages or any damages
  25:LUFA/LUFA/Drivers/USB/Core/AVR8/Template/Template_Endpoint_Control_W.c ****   whatsoever resulting from loss of use, data or profits, whether
  26:LUFA/LUFA/Drivers/USB/Core/AVR8/Template/Template_Endpoint_Control_W.c ****   in an action of contract, negligence or other tortious action,
  27:LUFA/LUFA/Drivers/USB/Core/AVR8/Template/Template_Endpoint_Control_W.c ****   arising out of or in connection with the use or performance of
  28:LUFA/LUFA/Drivers/USB/Core/AVR8/Template/Template_Endpoint_Control_W.c ****   this software.
  29:LUFA/LUFA/Drivers/USB/Core/AVR8/Template/Template_Endpoint_Control_W.c **** */
  30:LUFA/LUFA/Drivers/USB/Core/AVR8/Template/Template_Endpoint_Control_W.c **** 
  31:LUFA/LUFA/Drivers/USB/Core/AVR8/Template/Template_Endpoint_Control_W.c **** #if defined(TEMPLATE_FUNC_NAME)
  32:LUFA/LUFA/Drivers/USB/Core/AVR8/Template/Template_Endpoint_Control_W.c **** 
  33:LUFA/LUFA/Drivers/USB/Core/AVR8/Template/Template_Endpoint_Control_W.c **** uint8_t TEMPLATE_FUNC_NAME (const void* const Buffer,
  34:LUFA/LUFA/Drivers/USB/Core/AVR8/Template/Template_Endpoint_Control_W.c ****                             uint16_t Length)
  35:LUFA/LUFA/Drivers/USB/Core/AVR8/Template/Template_Endpoint_Control_W.c **** {
 2516               		.loc 4 35 1 is_stmt 1 view -0
 2517               		.cfi_startproc
 2518               	/* prologue: function */
 2519               	/* frame size = 0 */
 2520               	/* stack size = 0 */
 2521               	.L__stack_usage = 0
 2522               		.loc 4 35 1 is_stmt 0 view .LVU629
 2523 0000 FC01      		movw r30,r24
 2524 0002 CB01      		movw r24,r22
 2525               	.LVL238:
  36:LUFA/LUFA/Drivers/USB/Core/AVR8/Template/Template_Endpoint_Control_W.c **** 	uint8_t* DataStream     = ((uint8_t*)Buffer + TEMPLATE_BUFFER_OFFSET(Length));
 2526               		.loc 4 36 2 is_stmt 1 view .LVU630
  37:LUFA/LUFA/Drivers/USB/Core/AVR8/Template/Template_Endpoint_Control_W.c **** 	bool     LastPacketFull = false;
 2527               		.loc 4 37 2 view .LVU631
  38:LUFA/LUFA/Drivers/USB/Core/AVR8/Template/Template_Endpoint_Control_W.c **** 
  39:LUFA/LUFA/Drivers/USB/Core/AVR8/Template/Template_Endpoint_Control_W.c **** 	if (Length > USB_ControlRequest.wLength)
 2528               		.loc 4 39 2 view .LVU632
 2529               		.loc 4 39 33 is_stmt 0 view .LVU633
 2530 0004 2091 0000 		lds r18,USB_ControlRequest+6
 2531 0008 3091 0000 		lds r19,USB_ControlRequest+6+1
 2532               		.loc 4 39 5 view .LVU634
 2533 000c 2617      		cp r18,r22
 2534 000e 3707      		cpc r19,r23
 2535 0010 00F0      		brlo .L157
  40:LUFA/LUFA/Drivers/USB/Core/AVR8/Template/Template_Endpoint_Control_W.c **** 	  Length = USB_ControlRequest.wLength;
  41:LUFA/LUFA/Drivers/USB/Core/AVR8/Template/Template_Endpoint_Control_W.c **** 	else if (!(Length))
 2536               		.loc 4 41 7 is_stmt 1 view .LVU635
 2537               		.loc 4 41 10 is_stmt 0 view .LVU636
 2538 0012 0097      		sbiw r24,0
 2539 0014 01F4      		brne .L146
  42:LUFA/LUFA/Drivers/USB/Core/AVR8/Template/Template_Endpoint_Control_W.c **** 	  Endpoint_ClearIN();
 2540               		.loc 4 42 4 is_stmt 1 view .LVU637
 2541               	.LBB330:
 2542               	.LBI330:
 513:LUFA/LUFA/Drivers/USB/Core/AVR8/../AVR8/../AVR8/Endpoint_AVR8.h **** 			{
 2543               		.loc 2 513 23 view .LVU638
 2544               	.LBB331:
 516:LUFA/LUFA/Drivers/USB/Core/AVR8/../AVR8/../AVR8/Endpoint_AVR8.h **** 				#else
 2545               		.loc 2 516 6 view .LVU639
 516:LUFA/LUFA/Drivers/USB/Core/AVR8/../AVR8/../AVR8/Endpoint_AVR8.h **** 				#else
 2546               		.loc 2 516 13 is_stmt 0 view .LVU640
 2547 0016 2091 E800 		lds r18,232
 2548 001a 2E77      		andi r18,lo8(126)
 2549 001c 2093 E800 		sts 232,r18
 2550               	.L146:
 516:LUFA/LUFA/Drivers/USB/Core/AVR8/../AVR8/../AVR8/Endpoint_AVR8.h **** 				#else
 2551               		.loc 2 516 13 view .LVU641
 2552               	.LBE331:
 2553               	.LBE330:
 2554 0020 40E0      		ldi r20,0
 2555               	.LVL239:
 2556               	.L150:
  43:LUFA/LUFA/Drivers/USB/Core/AVR8/Template/Template_Endpoint_Control_W.c **** 
  44:LUFA/LUFA/Drivers/USB/Core/AVR8/Template/Template_Endpoint_Control_W.c **** 	while (Length || LastPacketFull)
 2557               		.loc 4 44 8 is_stmt 1 view .LVU642
 2558 0022 0097      		sbiw r24,0
 2559 0024 01F4      		brne .L155
 2560               		.loc 4 44 16 is_stmt 0 discriminator 1 view .LVU643
 2561 0026 4111      		cpse r20,__zero_reg__
 2562 0028 00C0      		rjmp .L155
 2563               	.LVL240:
 2564               	.L168:
  45:LUFA/LUFA/Drivers/USB/Core/AVR8/Template/Template_Endpoint_Control_W.c **** 	{
  46:LUFA/LUFA/Drivers/USB/Core/AVR8/Template/Template_Endpoint_Control_W.c **** 		uint8_t USB_DeviceState_LCL = USB_DeviceState;
  47:LUFA/LUFA/Drivers/USB/Core/AVR8/Template/Template_Endpoint_Control_W.c **** 
  48:LUFA/LUFA/Drivers/USB/Core/AVR8/Template/Template_Endpoint_Control_W.c **** 		if (USB_DeviceState_LCL == DEVICE_STATE_Unattached)
  49:LUFA/LUFA/Drivers/USB/Core/AVR8/Template/Template_Endpoint_Control_W.c **** 		  return ENDPOINT_RWCSTREAM_DeviceDisconnected;
  50:LUFA/LUFA/Drivers/USB/Core/AVR8/Template/Template_Endpoint_Control_W.c **** 		else if (USB_DeviceState_LCL == DEVICE_STATE_Suspended)
  51:LUFA/LUFA/Drivers/USB/Core/AVR8/Template/Template_Endpoint_Control_W.c **** 		  return ENDPOINT_RWCSTREAM_BusSuspended;
  52:LUFA/LUFA/Drivers/USB/Core/AVR8/Template/Template_Endpoint_Control_W.c **** 		else if (Endpoint_IsSETUPReceived())
  53:LUFA/LUFA/Drivers/USB/Core/AVR8/Template/Template_Endpoint_Control_W.c **** 		  return ENDPOINT_RWCSTREAM_HostAborted;
  54:LUFA/LUFA/Drivers/USB/Core/AVR8/Template/Template_Endpoint_Control_W.c **** 		else if (Endpoint_IsOUTReceived())
  55:LUFA/LUFA/Drivers/USB/Core/AVR8/Template/Template_Endpoint_Control_W.c **** 		  break;
  56:LUFA/LUFA/Drivers/USB/Core/AVR8/Template/Template_Endpoint_Control_W.c **** 
  57:LUFA/LUFA/Drivers/USB/Core/AVR8/Template/Template_Endpoint_Control_W.c **** 		if (Endpoint_IsINReady())
  58:LUFA/LUFA/Drivers/USB/Core/AVR8/Template/Template_Endpoint_Control_W.c **** 		{
  59:LUFA/LUFA/Drivers/USB/Core/AVR8/Template/Template_Endpoint_Control_W.c **** 			uint16_t BytesInEndpoint = Endpoint_BytesInEndpoint();
  60:LUFA/LUFA/Drivers/USB/Core/AVR8/Template/Template_Endpoint_Control_W.c **** 
  61:LUFA/LUFA/Drivers/USB/Core/AVR8/Template/Template_Endpoint_Control_W.c **** 			while (Length && (BytesInEndpoint < USB_Device_ControlEndpointSize))
  62:LUFA/LUFA/Drivers/USB/Core/AVR8/Template/Template_Endpoint_Control_W.c **** 			{
  63:LUFA/LUFA/Drivers/USB/Core/AVR8/Template/Template_Endpoint_Control_W.c **** 				TEMPLATE_TRANSFER_BYTE(DataStream);
  64:LUFA/LUFA/Drivers/USB/Core/AVR8/Template/Template_Endpoint_Control_W.c **** 				TEMPLATE_BUFFER_MOVE(DataStream, 1);
  65:LUFA/LUFA/Drivers/USB/Core/AVR8/Template/Template_Endpoint_Control_W.c **** 				Length--;
  66:LUFA/LUFA/Drivers/USB/Core/AVR8/Template/Template_Endpoint_Control_W.c **** 				BytesInEndpoint++;
  67:LUFA/LUFA/Drivers/USB/Core/AVR8/Template/Template_Endpoint_Control_W.c **** 			}
  68:LUFA/LUFA/Drivers/USB/Core/AVR8/Template/Template_Endpoint_Control_W.c **** 
  69:LUFA/LUFA/Drivers/USB/Core/AVR8/Template/Template_Endpoint_Control_W.c **** 			LastPacketFull = (BytesInEndpoint == USB_Device_ControlEndpointSize);
  70:LUFA/LUFA/Drivers/USB/Core/AVR8/Template/Template_Endpoint_Control_W.c **** 			Endpoint_ClearIN();
  71:LUFA/LUFA/Drivers/USB/Core/AVR8/Template/Template_Endpoint_Control_W.c **** 		}
  72:LUFA/LUFA/Drivers/USB/Core/AVR8/Template/Template_Endpoint_Control_W.c **** 	}
  73:LUFA/LUFA/Drivers/USB/Core/AVR8/Template/Template_Endpoint_Control_W.c **** 
  74:LUFA/LUFA/Drivers/USB/Core/AVR8/Template/Template_Endpoint_Control_W.c **** 	while (!(Endpoint_IsOUTReceived()))
 2565               		.loc 4 74 8 is_stmt 1 view .LVU644
 2566               	.LBB332:
 2567               	.LBI332:
 477:LUFA/LUFA/Drivers/USB/Core/AVR8/../AVR8/../AVR8/Endpoint_AVR8.h **** 			{
 2568               		.loc 2 477 23 view .LVU645
 2569               	.LBB333:
 479:LUFA/LUFA/Drivers/USB/Core/AVR8/../AVR8/../AVR8/Endpoint_AVR8.h **** 			}
 2570               		.loc 2 479 5 view .LVU646
 479:LUFA/LUFA/Drivers/USB/Core/AVR8/../AVR8/../AVR8/Endpoint_AVR8.h **** 			}
 2571               		.loc 2 479 14 is_stmt 0 view .LVU647
 2572 002a 8091 E800 		lds r24,232
 2573               	.LBE333:
 2574               	.LBE332:
 2575               		.loc 4 74 8 view .LVU648
 2576 002e 82FF      		sbrs r24,2
 2577 0030 00C0      		rjmp .L156
  75:LUFA/LUFA/Drivers/USB/Core/AVR8/Template/Template_Endpoint_Control_W.c **** 	{
  76:LUFA/LUFA/Drivers/USB/Core/AVR8/Template/Template_Endpoint_Control_W.c **** 		uint8_t USB_DeviceState_LCL = USB_DeviceState;
  77:LUFA/LUFA/Drivers/USB/Core/AVR8/Template/Template_Endpoint_Control_W.c **** 
  78:LUFA/LUFA/Drivers/USB/Core/AVR8/Template/Template_Endpoint_Control_W.c **** 		if (USB_DeviceState_LCL == DEVICE_STATE_Unattached)
  79:LUFA/LUFA/Drivers/USB/Core/AVR8/Template/Template_Endpoint_Control_W.c **** 		  return ENDPOINT_RWCSTREAM_DeviceDisconnected;
  80:LUFA/LUFA/Drivers/USB/Core/AVR8/Template/Template_Endpoint_Control_W.c **** 		else if (USB_DeviceState_LCL == DEVICE_STATE_Suspended)
  81:LUFA/LUFA/Drivers/USB/Core/AVR8/Template/Template_Endpoint_Control_W.c **** 		  return ENDPOINT_RWCSTREAM_BusSuspended;
  82:LUFA/LUFA/Drivers/USB/Core/AVR8/Template/Template_Endpoint_Control_W.c **** 	}
  83:LUFA/LUFA/Drivers/USB/Core/AVR8/Template/Template_Endpoint_Control_W.c **** 
  84:LUFA/LUFA/Drivers/USB/Core/AVR8/Template/Template_Endpoint_Control_W.c **** 	return ENDPOINT_RWCSTREAM_NoError;
 2578               		.loc 4 84 9 view .LVU649
 2579 0032 80E0      		ldi r24,0
 2580 0034 0895      		ret
 2581               	.LVL241:
 2582               	.L157:
 2583               		.loc 4 84 9 view .LVU650
 2584 0036 C901      		movw r24,r18
 2585 0038 00C0      		rjmp .L146
 2586               	.LVL242:
 2587               	.L155:
 2588               	.LBB334:
  46:LUFA/LUFA/Drivers/USB/Core/AVR8/Template/Template_Endpoint_Control_W.c **** 
 2589               		.loc 4 46 3 is_stmt 1 view .LVU651
  46:LUFA/LUFA/Drivers/USB/Core/AVR8/Template/Template_Endpoint_Control_W.c **** 
 2590               		.loc 4 46 11 is_stmt 0 view .LVU652
 2591 003a 2EB3      		in r18,0x1e
 2592               	.LVL243:
  48:LUFA/LUFA/Drivers/USB/Core/AVR8/Template/Template_Endpoint_Control_W.c **** 		  return ENDPOINT_RWCSTREAM_DeviceDisconnected;
 2593               		.loc 4 48 3 is_stmt 1 view .LVU653
  48:LUFA/LUFA/Drivers/USB/Core/AVR8/Template/Template_Endpoint_Control_W.c **** 		  return ENDPOINT_RWCSTREAM_DeviceDisconnected;
 2594               		.loc 4 48 6 is_stmt 0 view .LVU654
 2595 003c 2223      		tst r18
 2596 003e 01F0      		breq .L161
  50:LUFA/LUFA/Drivers/USB/Core/AVR8/Template/Template_Endpoint_Control_W.c **** 		  return ENDPOINT_RWCSTREAM_BusSuspended;
 2597               		.loc 4 50 8 is_stmt 1 view .LVU655
  50:LUFA/LUFA/Drivers/USB/Core/AVR8/Template/Template_Endpoint_Control_W.c **** 		  return ENDPOINT_RWCSTREAM_BusSuspended;
 2598               		.loc 4 50 11 is_stmt 0 view .LVU656
 2599 0040 2530      		cpi r18,lo8(5)
 2600 0042 01F0      		breq .L162
  52:LUFA/LUFA/Drivers/USB/Core/AVR8/Template/Template_Endpoint_Control_W.c **** 		  return ENDPOINT_RWCSTREAM_HostAborted;
 2601               		.loc 4 52 8 is_stmt 1 view .LVU657
 2602               	.LBB335:
 2603               	.LBI335:
 489:LUFA/LUFA/Drivers/USB/Core/AVR8/../AVR8/../AVR8/Endpoint_AVR8.h **** 			{
 2604               		.loc 2 489 23 view .LVU658
 2605               	.LBB336:
 491:LUFA/LUFA/Drivers/USB/Core/AVR8/../AVR8/../AVR8/Endpoint_AVR8.h **** 			}
 2606               		.loc 2 491 5 view .LVU659
 491:LUFA/LUFA/Drivers/USB/Core/AVR8/../AVR8/../AVR8/Endpoint_AVR8.h **** 			}
 2607               		.loc 2 491 14 is_stmt 0 view .LVU660
 2608 0044 2091 E800 		lds r18,232
 2609               	.LVL244:
 491:LUFA/LUFA/Drivers/USB/Core/AVR8/../AVR8/../AVR8/Endpoint_AVR8.h **** 			}
 2610               		.loc 2 491 14 view .LVU661
 2611               	.LBE336:
 2612               	.LBE335:
  52:LUFA/LUFA/Drivers/USB/Core/AVR8/Template/Template_Endpoint_Control_W.c **** 		  return ENDPOINT_RWCSTREAM_HostAborted;
 2613               		.loc 4 52 11 view .LVU662
 2614 0048 23FD      		sbrc r18,3
 2615 004a 00C0      		rjmp .L160
  54:LUFA/LUFA/Drivers/USB/Core/AVR8/Template/Template_Endpoint_Control_W.c **** 		  break;
 2616               		.loc 4 54 8 is_stmt 1 view .LVU663
 2617               	.LBB337:
 2618               	.LBI337:
 477:LUFA/LUFA/Drivers/USB/Core/AVR8/../AVR8/../AVR8/Endpoint_AVR8.h **** 			{
 2619               		.loc 2 477 23 view .LVU664
 2620               	.LBB338:
 479:LUFA/LUFA/Drivers/USB/Core/AVR8/../AVR8/../AVR8/Endpoint_AVR8.h **** 			}
 2621               		.loc 2 479 5 view .LVU665
 479:LUFA/LUFA/Drivers/USB/Core/AVR8/../AVR8/../AVR8/Endpoint_AVR8.h **** 			}
 2622               		.loc 2 479 14 is_stmt 0 view .LVU666
 2623 004c 2091 E800 		lds r18,232
 2624               	.LBE338:
 2625               	.LBE337:
  54:LUFA/LUFA/Drivers/USB/Core/AVR8/Template/Template_Endpoint_Control_W.c **** 		  break;
 2626               		.loc 4 54 11 view .LVU667
 2627 0050 22FD      		sbrc r18,2
 2628 0052 00C0      		rjmp .L168
  57:LUFA/LUFA/Drivers/USB/Core/AVR8/Template/Template_Endpoint_Control_W.c **** 		{
 2629               		.loc 4 57 3 is_stmt 1 view .LVU668
 2630               	.LBB339:
 2631               	.LBI339:
 465:LUFA/LUFA/Drivers/USB/Core/AVR8/../AVR8/../AVR8/Endpoint_AVR8.h **** 			{
 2632               		.loc 2 465 23 view .LVU669
 2633               	.LBB340:
 467:LUFA/LUFA/Drivers/USB/Core/AVR8/../AVR8/../AVR8/Endpoint_AVR8.h **** 			}
 2634               		.loc 2 467 5 view .LVU670
 467:LUFA/LUFA/Drivers/USB/Core/AVR8/../AVR8/../AVR8/Endpoint_AVR8.h **** 			}
 2635               		.loc 2 467 14 is_stmt 0 view .LVU671
 2636 0054 2091 E800 		lds r18,232
 2637               	.LBE340:
 2638               	.LBE339:
  57:LUFA/LUFA/Drivers/USB/Core/AVR8/Template/Template_Endpoint_Control_W.c **** 		{
 2639               		.loc 4 57 6 view .LVU672
 2640 0058 20FF      		sbrs r18,0
 2641 005a 00C0      		rjmp .L150
 2642               	.LBB341:
  59:LUFA/LUFA/Drivers/USB/Core/AVR8/Template/Template_Endpoint_Control_W.c **** 
 2643               		.loc 4 59 4 is_stmt 1 view .LVU673
 2644               	.LBB342:
 2645               	.LBI342:
 290:LUFA/LUFA/Drivers/USB/Core/AVR8/../AVR8/../AVR8/Endpoint_AVR8.h **** 			{
 2646               		.loc 2 290 27 view .LVU674
 2647               	.LBB343:
 295:LUFA/LUFA/Drivers/USB/Core/AVR8/../AVR8/../AVR8/Endpoint_AVR8.h **** 				#elif defined(USB_SERIES_2_AVR)
 2648               		.loc 2 295 6 view .LVU675
 295:LUFA/LUFA/Drivers/USB/Core/AVR8/../AVR8/../AVR8/Endpoint_AVR8.h **** 				#elif defined(USB_SERIES_2_AVR)
 2649               		.loc 2 295 25 is_stmt 0 view .LVU676
 2650 005c 3091 F300 		lds r19,243
 295:LUFA/LUFA/Drivers/USB/Core/AVR8/../AVR8/../AVR8/Endpoint_AVR8.h **** 				#elif defined(USB_SERIES_2_AVR)
 2651               		.loc 2 295 40 view .LVU677
 2652 0060 2091 F200 		lds r18,242
 2653               	.LVL245:
 295:LUFA/LUFA/Drivers/USB/Core/AVR8/../AVR8/../AVR8/Endpoint_AVR8.h **** 				#elif defined(USB_SERIES_2_AVR)
 2654               		.loc 2 295 40 view .LVU678
 2655               	.LBE343:
 2656               	.LBE342:
  61:LUFA/LUFA/Drivers/USB/Core/AVR8/Template/Template_Endpoint_Control_W.c **** 			{
 2657               		.loc 4 61 4 is_stmt 1 view .LVU679
 2658               	.L151:
  61:LUFA/LUFA/Drivers/USB/Core/AVR8/Template/Template_Endpoint_Control_W.c **** 			{
 2659               		.loc 4 61 10 view .LVU680
 2660 0064 0097      		sbiw r24,0
 2661 0066 01F0      		breq .L152
  61:LUFA/LUFA/Drivers/USB/Core/AVR8/Template/Template_Endpoint_Control_W.c **** 			{
 2662               		.loc 4 61 18 is_stmt 0 discriminator 1 view .LVU681
 2663 0068 2830      		cpi r18,8
 2664 006a 3105      		cpc r19,__zero_reg__
 2665 006c 00F0      		brlo .L153
 2666               	.L152:
  69:LUFA/LUFA/Drivers/USB/Core/AVR8/Template/Template_Endpoint_Control_W.c **** 			Endpoint_ClearIN();
 2667               		.loc 4 69 4 is_stmt 1 view .LVU682
  69:LUFA/LUFA/Drivers/USB/Core/AVR8/Template/Template_Endpoint_Control_W.c **** 			Endpoint_ClearIN();
 2668               		.loc 4 69 19 is_stmt 0 view .LVU683
 2669 006e 41E0      		ldi r20,lo8(1)
 2670 0070 2830      		cpi r18,8
 2671 0072 3105      		cpc r19,__zero_reg__
 2672 0074 01F0      		breq .L154
 2673 0076 40E0      		ldi r20,0
 2674               	.L154:
 2675               	.LVL246:
  70:LUFA/LUFA/Drivers/USB/Core/AVR8/Template/Template_Endpoint_Control_W.c **** 		}
 2676               		.loc 4 70 4 is_stmt 1 view .LVU684
 2677               	.LBB344:
 2678               	.LBI344:
 513:LUFA/LUFA/Drivers/USB/Core/AVR8/../AVR8/../AVR8/Endpoint_AVR8.h **** 			{
 2679               		.loc 2 513 23 view .LVU685
 2680               	.LBB345:
 516:LUFA/LUFA/Drivers/USB/Core/AVR8/../AVR8/../AVR8/Endpoint_AVR8.h **** 				#else
 2681               		.loc 2 516 6 view .LVU686
 516:LUFA/LUFA/Drivers/USB/Core/AVR8/../AVR8/../AVR8/Endpoint_AVR8.h **** 				#else
 2682               		.loc 2 516 13 is_stmt 0 view .LVU687
 2683 0078 2091 E800 		lds r18,232
 2684               	.LVL247:
 516:LUFA/LUFA/Drivers/USB/Core/AVR8/../AVR8/../AVR8/Endpoint_AVR8.h **** 				#else
 2685               		.loc 2 516 13 view .LVU688
 2686 007c 2E77      		andi r18,lo8(126)
 2687 007e 2093 E800 		sts 232,r18
 2688               	.LVL248:
 520:LUFA/LUFA/Drivers/USB/Core/AVR8/../AVR8/../AVR8/Endpoint_AVR8.h **** 
 2689               		.loc 2 520 4 view .LVU689
 2690 0082 00C0      		rjmp .L150
 2691               	.LVL249:
 2692               	.L153:
 520:LUFA/LUFA/Drivers/USB/Core/AVR8/../AVR8/../AVR8/Endpoint_AVR8.h **** 
 2693               		.loc 2 520 4 view .LVU690
 2694               	.LBE345:
 2695               	.LBE344:
  63:LUFA/LUFA/Drivers/USB/Core/AVR8/Template/Template_Endpoint_Control_W.c **** 				TEMPLATE_BUFFER_MOVE(DataStream, 1);
 2696               		.loc 4 63 5 is_stmt 1 view .LVU691
 2697 0084 4191      		ld r20,Z+
 2698               	.LVL250:
 2699               	.LBB346:
 2700               	.LBI346:
 622:LUFA/LUFA/Drivers/USB/Core/AVR8/../AVR8/../AVR8/Endpoint_AVR8.h **** 			{
 2701               		.loc 2 622 23 view .LVU692
 2702               	.LBB347:
 624:LUFA/LUFA/Drivers/USB/Core/AVR8/../AVR8/../AVR8/Endpoint_AVR8.h **** 			}
 2703               		.loc 2 624 5 view .LVU693
 624:LUFA/LUFA/Drivers/USB/Core/AVR8/../AVR8/../AVR8/Endpoint_AVR8.h **** 			}
 2704               		.loc 2 624 12 is_stmt 0 view .LVU694
 2705 0086 4093 F100 		sts 241,r20
 2706               	.LVL251:
 624:LUFA/LUFA/Drivers/USB/Core/AVR8/../AVR8/../AVR8/Endpoint_AVR8.h **** 			}
 2707               		.loc 2 624 12 view .LVU695
 2708               	.LBE347:
 2709               	.LBE346:
  64:LUFA/LUFA/Drivers/USB/Core/AVR8/Template/Template_Endpoint_Control_W.c **** 				Length--;
 2710               		.loc 4 64 5 is_stmt 1 view .LVU696
  65:LUFA/LUFA/Drivers/USB/Core/AVR8/Template/Template_Endpoint_Control_W.c **** 				BytesInEndpoint++;
 2711               		.loc 4 65 5 view .LVU697
  65:LUFA/LUFA/Drivers/USB/Core/AVR8/Template/Template_Endpoint_Control_W.c **** 				BytesInEndpoint++;
 2712               		.loc 4 65 11 is_stmt 0 view .LVU698
 2713 008a 0197      		sbiw r24,1
 2714               	.LVL252:
  66:LUFA/LUFA/Drivers/USB/Core/AVR8/Template/Template_Endpoint_Control_W.c **** 			}
 2715               		.loc 4 66 5 is_stmt 1 view .LVU699
  66:LUFA/LUFA/Drivers/USB/Core/AVR8/Template/Template_Endpoint_Control_W.c **** 			}
 2716               		.loc 4 66 20 is_stmt 0 view .LVU700
 2717 008c 2F5F      		subi r18,-1
 2718 008e 3F4F      		sbci r19,-1
 2719               	.LVL253:
  66:LUFA/LUFA/Drivers/USB/Core/AVR8/Template/Template_Endpoint_Control_W.c **** 			}
 2720               		.loc 4 66 20 view .LVU701
 2721 0090 00C0      		rjmp .L151
 2722               	.LVL254:
 2723               	.L156:
  66:LUFA/LUFA/Drivers/USB/Core/AVR8/Template/Template_Endpoint_Control_W.c **** 			}
 2724               		.loc 4 66 20 view .LVU702
 2725               	.LBE341:
 2726               	.LBE334:
 2727               	.LBB348:
  76:LUFA/LUFA/Drivers/USB/Core/AVR8/Template/Template_Endpoint_Control_W.c **** 
 2728               		.loc 4 76 3 is_stmt 1 view .LVU703
  76:LUFA/LUFA/Drivers/USB/Core/AVR8/Template/Template_Endpoint_Control_W.c **** 
 2729               		.loc 4 76 11 is_stmt 0 view .LVU704
 2730 0092 8EB3      		in r24,0x1e
 2731               	.LVL255:
  78:LUFA/LUFA/Drivers/USB/Core/AVR8/Template/Template_Endpoint_Control_W.c **** 		  return ENDPOINT_RWCSTREAM_DeviceDisconnected;
 2732               		.loc 4 78 3 is_stmt 1 view .LVU705
  78:LUFA/LUFA/Drivers/USB/Core/AVR8/Template/Template_Endpoint_Control_W.c **** 		  return ENDPOINT_RWCSTREAM_DeviceDisconnected;
 2733               		.loc 4 78 6 is_stmt 0 view .LVU706
 2734 0094 8823      		tst r24
 2735 0096 01F0      		breq .L161
  80:LUFA/LUFA/Drivers/USB/Core/AVR8/Template/Template_Endpoint_Control_W.c **** 		  return ENDPOINT_RWCSTREAM_BusSuspended;
 2736               		.loc 4 80 8 is_stmt 1 view .LVU707
  80:LUFA/LUFA/Drivers/USB/Core/AVR8/Template/Template_Endpoint_Control_W.c **** 		  return ENDPOINT_RWCSTREAM_BusSuspended;
 2737               		.loc 4 80 11 is_stmt 0 view .LVU708
 2738 0098 8530      		cpi r24,lo8(5)
 2739 009a 01F4      		brne .L168
 2740               	.LVL256:
 2741               	.L162:
  80:LUFA/LUFA/Drivers/USB/Core/AVR8/Template/Template_Endpoint_Control_W.c **** 		  return ENDPOINT_RWCSTREAM_BusSuspended;
 2742               		.loc 4 80 11 view .LVU709
 2743               	.LBE348:
 2744               	.LBB349:
  51:LUFA/LUFA/Drivers/USB/Core/AVR8/Template/Template_Endpoint_Control_W.c **** 		else if (Endpoint_IsSETUPReceived())
 2745               		.loc 4 51 12 view .LVU710
 2746 009c 83E0      		ldi r24,lo8(3)
 2747               	/* epilogue start */
 2748               	.LBE349:
  85:LUFA/LUFA/Drivers/USB/Core/AVR8/Template/Template_Endpoint_Control_W.c **** }
 2749               		.loc 4 85 1 view .LVU711
 2750 009e 0895      		ret
 2751               	.LVL257:
 2752               	.L160:
 2753               	.LBB350:
  53:LUFA/LUFA/Drivers/USB/Core/AVR8/Template/Template_Endpoint_Control_W.c **** 		else if (Endpoint_IsOUTReceived())
 2754               		.loc 4 53 12 view .LVU712
 2755 00a0 81E0      		ldi r24,lo8(1)
 2756               	.LVL258:
  53:LUFA/LUFA/Drivers/USB/Core/AVR8/Template/Template_Endpoint_Control_W.c **** 		else if (Endpoint_IsOUTReceived())
 2757               		.loc 4 53 12 view .LVU713
 2758 00a2 0895      		ret
 2759               	.L161:
  49:LUFA/LUFA/Drivers/USB/Core/AVR8/Template/Template_Endpoint_Control_W.c **** 		else if (USB_DeviceState_LCL == DEVICE_STATE_Suspended)
 2760               		.loc 4 49 12 view .LVU714
 2761 00a4 82E0      		ldi r24,lo8(2)
 2762 00a6 0895      		ret
 2763               	.LBE350:
 2764               		.cfi_endproc
 2765               	.LFE93:
 2767               		.section	.text.Endpoint_Write_Control_Stream_BE,"ax",@progbits
 2768               	.global	Endpoint_Write_Control_Stream_BE
 2770               	Endpoint_Write_Control_Stream_BE:
 2771               	.LVL259:
 2772               	.LFB94:
  35:LUFA/LUFA/Drivers/USB/Core/AVR8/Template/Template_Endpoint_Control_W.c **** 	uint8_t* DataStream     = ((uint8_t*)Buffer + TEMPLATE_BUFFER_OFFSET(Length));
 2773               		.loc 4 35 1 is_stmt 1 view -0
 2774               		.cfi_startproc
 2775               	/* prologue: function */
 2776               	/* frame size = 0 */
 2777               	/* stack size = 0 */
 2778               	.L__stack_usage = 0
  35:LUFA/LUFA/Drivers/USB/Core/AVR8/Template/Template_Endpoint_Control_W.c **** 	uint8_t* DataStream     = ((uint8_t*)Buffer + TEMPLATE_BUFFER_OFFSET(Length));
 2779               		.loc 4 35 1 is_stmt 0 view .LVU716
 2780 0000 9B01      		movw r18,r22
  36:LUFA/LUFA/Drivers/USB/Core/AVR8/Template/Template_Endpoint_Control_W.c **** 	bool     LastPacketFull = false;
 2781               		.loc 4 36 2 is_stmt 1 view .LVU717
  36:LUFA/LUFA/Drivers/USB/Core/AVR8/Template/Template_Endpoint_Control_W.c **** 	bool     LastPacketFull = false;
 2782               		.loc 4 36 46 is_stmt 0 view .LVU718
 2783 0002 FB01      		movw r30,r22
 2784 0004 3197      		sbiw r30,1
  36:LUFA/LUFA/Drivers/USB/Core/AVR8/Template/Template_Endpoint_Control_W.c **** 	bool     LastPacketFull = false;
 2785               		.loc 4 36 11 view .LVU719
 2786 0006 E80F      		add r30,r24
 2787 0008 F91F      		adc r31,r25
 2788               	.LVL260:
  37:LUFA/LUFA/Drivers/USB/Core/AVR8/Template/Template_Endpoint_Control_W.c **** 
 2789               		.loc 4 37 2 is_stmt 1 view .LVU720
  39:LUFA/LUFA/Drivers/USB/Core/AVR8/Template/Template_Endpoint_Control_W.c **** 	  Length = USB_ControlRequest.wLength;
 2790               		.loc 4 39 2 view .LVU721
  39:LUFA/LUFA/Drivers/USB/Core/AVR8/Template/Template_Endpoint_Control_W.c **** 	  Length = USB_ControlRequest.wLength;
 2791               		.loc 4 39 33 is_stmt 0 view .LVU722
 2792 000a 8091 0000 		lds r24,USB_ControlRequest+6
 2793 000e 9091 0000 		lds r25,USB_ControlRequest+6+1
 2794               	.LVL261:
  39:LUFA/LUFA/Drivers/USB/Core/AVR8/Template/Template_Endpoint_Control_W.c **** 	  Length = USB_ControlRequest.wLength;
 2795               		.loc 4 39 5 view .LVU723
 2796 0012 8617      		cp r24,r22
 2797 0014 9707      		cpc r25,r23
 2798 0016 00F0      		brlo .L184
  41:LUFA/LUFA/Drivers/USB/Core/AVR8/Template/Template_Endpoint_Control_W.c **** 	  Endpoint_ClearIN();
 2799               		.loc 4 41 7 is_stmt 1 view .LVU724
  41:LUFA/LUFA/Drivers/USB/Core/AVR8/Template/Template_Endpoint_Control_W.c **** 	  Endpoint_ClearIN();
 2800               		.loc 4 41 10 is_stmt 0 view .LVU725
 2801 0018 672B      		or r22,r23
 2802 001a 01F4      		brne .L173
  42:LUFA/LUFA/Drivers/USB/Core/AVR8/Template/Template_Endpoint_Control_W.c **** 
 2803               		.loc 4 42 4 is_stmt 1 view .LVU726
 2804               	.LBB351:
 2805               	.LBI351:
 513:LUFA/LUFA/Drivers/USB/Core/AVR8/../AVR8/../AVR8/Endpoint_AVR8.h **** 			{
 2806               		.loc 2 513 23 view .LVU727
 2807               	.LBB352:
 516:LUFA/LUFA/Drivers/USB/Core/AVR8/../AVR8/../AVR8/Endpoint_AVR8.h **** 				#else
 2808               		.loc 2 516 6 view .LVU728
 516:LUFA/LUFA/Drivers/USB/Core/AVR8/../AVR8/../AVR8/Endpoint_AVR8.h **** 				#else
 2809               		.loc 2 516 13 is_stmt 0 view .LVU729
 2810 001c 8091 E800 		lds r24,232
 2811 0020 8E77      		andi r24,lo8(126)
 2812 0022 8093 E800 		sts 232,r24
 2813               	.L173:
 516:LUFA/LUFA/Drivers/USB/Core/AVR8/../AVR8/../AVR8/Endpoint_AVR8.h **** 				#else
 2814               		.loc 2 516 13 view .LVU730
 2815               	.LBE352:
 2816               	.LBE351:
 2817 0026 80E0      		ldi r24,0
 2818               	.LVL262:
 2819               	.L177:
  44:LUFA/LUFA/Drivers/USB/Core/AVR8/Template/Template_Endpoint_Control_W.c **** 	{
 2820               		.loc 4 44 8 is_stmt 1 view .LVU731
 2821 0028 2115      		cp r18,__zero_reg__
 2822 002a 3105      		cpc r19,__zero_reg__
 2823 002c 01F4      		brne .L182
  44:LUFA/LUFA/Drivers/USB/Core/AVR8/Template/Template_Endpoint_Control_W.c **** 	{
 2824               		.loc 4 44 16 is_stmt 0 discriminator 1 view .LVU732
 2825 002e 8111      		cpse r24,__zero_reg__
 2826 0030 00C0      		rjmp .L182
 2827               	.LVL263:
 2828               	.L195:
  74:LUFA/LUFA/Drivers/USB/Core/AVR8/Template/Template_Endpoint_Control_W.c **** 	{
 2829               		.loc 4 74 8 is_stmt 1 view .LVU733
 2830               	.LBB353:
 2831               	.LBI353:
 477:LUFA/LUFA/Drivers/USB/Core/AVR8/../AVR8/../AVR8/Endpoint_AVR8.h **** 			{
 2832               		.loc 2 477 23 view .LVU734
 2833               	.LBB354:
 479:LUFA/LUFA/Drivers/USB/Core/AVR8/../AVR8/../AVR8/Endpoint_AVR8.h **** 			}
 2834               		.loc 2 479 5 view .LVU735
 479:LUFA/LUFA/Drivers/USB/Core/AVR8/../AVR8/../AVR8/Endpoint_AVR8.h **** 			}
 2835               		.loc 2 479 14 is_stmt 0 view .LVU736
 2836 0032 8091 E800 		lds r24,232
 2837               	.LBE354:
 2838               	.LBE353:
  74:LUFA/LUFA/Drivers/USB/Core/AVR8/Template/Template_Endpoint_Control_W.c **** 	{
 2839               		.loc 4 74 8 view .LVU737
 2840 0036 82FF      		sbrs r24,2
 2841 0038 00C0      		rjmp .L183
  84:LUFA/LUFA/Drivers/USB/Core/AVR8/Template/Template_Endpoint_Control_W.c **** }
 2842               		.loc 4 84 9 view .LVU738
 2843 003a 80E0      		ldi r24,0
 2844 003c 0895      		ret
 2845               	.LVL264:
 2846               	.L184:
  84:LUFA/LUFA/Drivers/USB/Core/AVR8/Template/Template_Endpoint_Control_W.c **** }
 2847               		.loc 4 84 9 view .LVU739
 2848 003e 9C01      		movw r18,r24
 2849               	.LVL265:
  84:LUFA/LUFA/Drivers/USB/Core/AVR8/Template/Template_Endpoint_Control_W.c **** }
 2850               		.loc 4 84 9 view .LVU740
 2851 0040 00C0      		rjmp .L173
 2852               	.LVL266:
 2853               	.L182:
 2854               	.LBB355:
  46:LUFA/LUFA/Drivers/USB/Core/AVR8/Template/Template_Endpoint_Control_W.c **** 
 2855               		.loc 4 46 3 is_stmt 1 view .LVU741
  46:LUFA/LUFA/Drivers/USB/Core/AVR8/Template/Template_Endpoint_Control_W.c **** 
 2856               		.loc 4 46 11 is_stmt 0 view .LVU742
 2857 0042 9EB3      		in r25,0x1e
 2858               	.LVL267:
  48:LUFA/LUFA/Drivers/USB/Core/AVR8/Template/Template_Endpoint_Control_W.c **** 		  return ENDPOINT_RWCSTREAM_DeviceDisconnected;
 2859               		.loc 4 48 3 is_stmt 1 view .LVU743
  48:LUFA/LUFA/Drivers/USB/Core/AVR8/Template/Template_Endpoint_Control_W.c **** 		  return ENDPOINT_RWCSTREAM_DeviceDisconnected;
 2860               		.loc 4 48 6 is_stmt 0 view .LVU744
 2861 0044 9923      		tst r25
 2862 0046 01F0      		breq .L188
  50:LUFA/LUFA/Drivers/USB/Core/AVR8/Template/Template_Endpoint_Control_W.c **** 		  return ENDPOINT_RWCSTREAM_BusSuspended;
 2863               		.loc 4 50 8 is_stmt 1 view .LVU745
  50:LUFA/LUFA/Drivers/USB/Core/AVR8/Template/Template_Endpoint_Control_W.c **** 		  return ENDPOINT_RWCSTREAM_BusSuspended;
 2864               		.loc 4 50 11 is_stmt 0 view .LVU746
 2865 0048 9530      		cpi r25,lo8(5)
 2866 004a 01F0      		breq .L189
  52:LUFA/LUFA/Drivers/USB/Core/AVR8/Template/Template_Endpoint_Control_W.c **** 		  return ENDPOINT_RWCSTREAM_HostAborted;
 2867               		.loc 4 52 8 is_stmt 1 view .LVU747
 2868               	.LBB356:
 2869               	.LBI356:
 489:LUFA/LUFA/Drivers/USB/Core/AVR8/../AVR8/../AVR8/Endpoint_AVR8.h **** 			{
 2870               		.loc 2 489 23 view .LVU748
 2871               	.LBB357:
 491:LUFA/LUFA/Drivers/USB/Core/AVR8/../AVR8/../AVR8/Endpoint_AVR8.h **** 			}
 2872               		.loc 2 491 5 view .LVU749
 491:LUFA/LUFA/Drivers/USB/Core/AVR8/../AVR8/../AVR8/Endpoint_AVR8.h **** 			}
 2873               		.loc 2 491 14 is_stmt 0 view .LVU750
 2874 004c 9091 E800 		lds r25,232
 2875               	.LVL268:
 491:LUFA/LUFA/Drivers/USB/Core/AVR8/../AVR8/../AVR8/Endpoint_AVR8.h **** 			}
 2876               		.loc 2 491 14 view .LVU751
 2877               	.LBE357:
 2878               	.LBE356:
  52:LUFA/LUFA/Drivers/USB/Core/AVR8/Template/Template_Endpoint_Control_W.c **** 		  return ENDPOINT_RWCSTREAM_HostAborted;
 2879               		.loc 4 52 11 view .LVU752
 2880 0050 93FD      		sbrc r25,3
 2881 0052 00C0      		rjmp .L187
  54:LUFA/LUFA/Drivers/USB/Core/AVR8/Template/Template_Endpoint_Control_W.c **** 		  break;
 2882               		.loc 4 54 8 is_stmt 1 view .LVU753
 2883               	.LBB358:
 2884               	.LBI358:
 477:LUFA/LUFA/Drivers/USB/Core/AVR8/../AVR8/../AVR8/Endpoint_AVR8.h **** 			{
 2885               		.loc 2 477 23 view .LVU754
 2886               	.LBB359:
 479:LUFA/LUFA/Drivers/USB/Core/AVR8/../AVR8/../AVR8/Endpoint_AVR8.h **** 			}
 2887               		.loc 2 479 5 view .LVU755
 479:LUFA/LUFA/Drivers/USB/Core/AVR8/../AVR8/../AVR8/Endpoint_AVR8.h **** 			}
 2888               		.loc 2 479 14 is_stmt 0 view .LVU756
 2889 0054 9091 E800 		lds r25,232
 2890               	.LBE359:
 2891               	.LBE358:
  54:LUFA/LUFA/Drivers/USB/Core/AVR8/Template/Template_Endpoint_Control_W.c **** 		  break;
 2892               		.loc 4 54 11 view .LVU757
 2893 0058 92FD      		sbrc r25,2
 2894 005a 00C0      		rjmp .L195
  57:LUFA/LUFA/Drivers/USB/Core/AVR8/Template/Template_Endpoint_Control_W.c **** 		{
 2895               		.loc 4 57 3 is_stmt 1 view .LVU758
 2896               	.LBB360:
 2897               	.LBI360:
 465:LUFA/LUFA/Drivers/USB/Core/AVR8/../AVR8/../AVR8/Endpoint_AVR8.h **** 			{
 2898               		.loc 2 465 23 view .LVU759
 2899               	.LBB361:
 467:LUFA/LUFA/Drivers/USB/Core/AVR8/../AVR8/../AVR8/Endpoint_AVR8.h **** 			}
 2900               		.loc 2 467 5 view .LVU760
 467:LUFA/LUFA/Drivers/USB/Core/AVR8/../AVR8/../AVR8/Endpoint_AVR8.h **** 			}
 2901               		.loc 2 467 14 is_stmt 0 view .LVU761
 2902 005c 9091 E800 		lds r25,232
 2903               	.LBE361:
 2904               	.LBE360:
  57:LUFA/LUFA/Drivers/USB/Core/AVR8/Template/Template_Endpoint_Control_W.c **** 		{
 2905               		.loc 4 57 6 view .LVU762
 2906 0060 90FF      		sbrs r25,0
 2907 0062 00C0      		rjmp .L177
 2908               	.LBB362:
  59:LUFA/LUFA/Drivers/USB/Core/AVR8/Template/Template_Endpoint_Control_W.c **** 
 2909               		.loc 4 59 4 is_stmt 1 view .LVU763
 2910               	.LBB363:
 2911               	.LBI363:
 290:LUFA/LUFA/Drivers/USB/Core/AVR8/../AVR8/../AVR8/Endpoint_AVR8.h **** 			{
 2912               		.loc 2 290 27 view .LVU764
 2913               	.LBB364:
 295:LUFA/LUFA/Drivers/USB/Core/AVR8/../AVR8/../AVR8/Endpoint_AVR8.h **** 				#elif defined(USB_SERIES_2_AVR)
 2914               		.loc 2 295 6 view .LVU765
 295:LUFA/LUFA/Drivers/USB/Core/AVR8/../AVR8/../AVR8/Endpoint_AVR8.h **** 				#elif defined(USB_SERIES_2_AVR)
 2915               		.loc 2 295 25 is_stmt 0 view .LVU766
 2916 0064 8091 F300 		lds r24,243
 2917               	.LVL269:
 295:LUFA/LUFA/Drivers/USB/Core/AVR8/../AVR8/../AVR8/Endpoint_AVR8.h **** 				#elif defined(USB_SERIES_2_AVR)
 2918               		.loc 2 295 40 view .LVU767
 2919 0068 4091 F200 		lds r20,242
 295:LUFA/LUFA/Drivers/USB/Core/AVR8/../AVR8/../AVR8/Endpoint_AVR8.h **** 				#elif defined(USB_SERIES_2_AVR)
 2920               		.loc 2 295 38 view .LVU768
 2921 006c 582F      		mov r21,r24
 2922               	.LVL270:
 295:LUFA/LUFA/Drivers/USB/Core/AVR8/../AVR8/../AVR8/Endpoint_AVR8.h **** 				#elif defined(USB_SERIES_2_AVR)
 2923               		.loc 2 295 38 view .LVU769
 2924               	.LBE364:
 2925               	.LBE363:
  61:LUFA/LUFA/Drivers/USB/Core/AVR8/Template/Template_Endpoint_Control_W.c **** 			{
 2926               		.loc 4 61 4 is_stmt 1 view .LVU770
 2927               	.L178:
  61:LUFA/LUFA/Drivers/USB/Core/AVR8/Template/Template_Endpoint_Control_W.c **** 			{
 2928               		.loc 4 61 10 view .LVU771
 2929 006e 2115      		cp r18,__zero_reg__
 2930 0070 3105      		cpc r19,__zero_reg__
 2931 0072 01F0      		breq .L179
  61:LUFA/LUFA/Drivers/USB/Core/AVR8/Template/Template_Endpoint_Control_W.c **** 			{
 2932               		.loc 4 61 18 is_stmt 0 discriminator 1 view .LVU772
 2933 0074 4830      		cpi r20,8
 2934 0076 5105      		cpc r21,__zero_reg__
 2935 0078 00F0      		brlo .L180
 2936               	.L179:
  69:LUFA/LUFA/Drivers/USB/Core/AVR8/Template/Template_Endpoint_Control_W.c **** 			Endpoint_ClearIN();
 2937               		.loc 4 69 4 is_stmt 1 view .LVU773
  69:LUFA/LUFA/Drivers/USB/Core/AVR8/Template/Template_Endpoint_Control_W.c **** 			Endpoint_ClearIN();
 2938               		.loc 4 69 19 is_stmt 0 view .LVU774
 2939 007a 81E0      		ldi r24,lo8(1)
 2940 007c 4830      		cpi r20,8
 2941 007e 5105      		cpc r21,__zero_reg__
 2942 0080 01F0      		breq .L181
 2943 0082 80E0      		ldi r24,0
 2944               	.L181:
 2945               	.LVL271:
  70:LUFA/LUFA/Drivers/USB/Core/AVR8/Template/Template_Endpoint_Control_W.c **** 		}
 2946               		.loc 4 70 4 is_stmt 1 view .LVU775
 2947               	.LBB365:
 2948               	.LBI365:
 513:LUFA/LUFA/Drivers/USB/Core/AVR8/../AVR8/../AVR8/Endpoint_AVR8.h **** 			{
 2949               		.loc 2 513 23 view .LVU776
 2950               	.LBB366:
 516:LUFA/LUFA/Drivers/USB/Core/AVR8/../AVR8/../AVR8/Endpoint_AVR8.h **** 				#else
 2951               		.loc 2 516 6 view .LVU777
 516:LUFA/LUFA/Drivers/USB/Core/AVR8/../AVR8/../AVR8/Endpoint_AVR8.h **** 				#else
 2952               		.loc 2 516 13 is_stmt 0 view .LVU778
 2953 0084 9091 E800 		lds r25,232
 2954 0088 9E77      		andi r25,lo8(126)
 2955 008a 9093 E800 		sts 232,r25
 2956               	.LVL272:
 520:LUFA/LUFA/Drivers/USB/Core/AVR8/../AVR8/../AVR8/Endpoint_AVR8.h **** 
 2957               		.loc 2 520 4 view .LVU779
 2958 008e 00C0      		rjmp .L177
 2959               	.LVL273:
 2960               	.L180:
 520:LUFA/LUFA/Drivers/USB/Core/AVR8/../AVR8/../AVR8/Endpoint_AVR8.h **** 
 2961               		.loc 2 520 4 view .LVU780
 2962               	.LBE366:
 2963               	.LBE365:
  63:LUFA/LUFA/Drivers/USB/Core/AVR8/Template/Template_Endpoint_Control_W.c **** 				TEMPLATE_BUFFER_MOVE(DataStream, 1);
 2964               		.loc 4 63 5 is_stmt 1 view .LVU781
 2965 0090 8081      		ld r24,Z
 2966               	.LVL274:
 2967               	.LBB367:
 2968               	.LBI367:
 622:LUFA/LUFA/Drivers/USB/Core/AVR8/../AVR8/../AVR8/Endpoint_AVR8.h **** 			{
 2969               		.loc 2 622 23 view .LVU782
 2970               	.LBB368:
 624:LUFA/LUFA/Drivers/USB/Core/AVR8/../AVR8/../AVR8/Endpoint_AVR8.h **** 			}
 2971               		.loc 2 624 5 view .LVU783
 624:LUFA/LUFA/Drivers/USB/Core/AVR8/../AVR8/../AVR8/Endpoint_AVR8.h **** 			}
 2972               		.loc 2 624 12 is_stmt 0 view .LVU784
 2973 0092 8093 F100 		sts 241,r24
 2974               	.LVL275:
 624:LUFA/LUFA/Drivers/USB/Core/AVR8/../AVR8/../AVR8/Endpoint_AVR8.h **** 			}
 2975               		.loc 2 624 12 view .LVU785
 2976               	.LBE368:
 2977               	.LBE367:
  64:LUFA/LUFA/Drivers/USB/Core/AVR8/Template/Template_Endpoint_Control_W.c **** 				Length--;
 2978               		.loc 4 64 5 is_stmt 1 view .LVU786
 2979 0096 3197      		sbiw r30,1
 2980               	.LVL276:
  65:LUFA/LUFA/Drivers/USB/Core/AVR8/Template/Template_Endpoint_Control_W.c **** 				BytesInEndpoint++;
 2981               		.loc 4 65 5 view .LVU787
  65:LUFA/LUFA/Drivers/USB/Core/AVR8/Template/Template_Endpoint_Control_W.c **** 				BytesInEndpoint++;
 2982               		.loc 4 65 11 is_stmt 0 view .LVU788
 2983 0098 2150      		subi r18,1
 2984 009a 3109      		sbc r19,__zero_reg__
 2985               	.LVL277:
  66:LUFA/LUFA/Drivers/USB/Core/AVR8/Template/Template_Endpoint_Control_W.c **** 			}
 2986               		.loc 4 66 5 is_stmt 1 view .LVU789
  66:LUFA/LUFA/Drivers/USB/Core/AVR8/Template/Template_Endpoint_Control_W.c **** 			}
 2987               		.loc 4 66 20 is_stmt 0 view .LVU790
 2988 009c 4F5F      		subi r20,-1
 2989 009e 5F4F      		sbci r21,-1
 2990               	.LVL278:
  66:LUFA/LUFA/Drivers/USB/Core/AVR8/Template/Template_Endpoint_Control_W.c **** 			}
 2991               		.loc 4 66 20 view .LVU791
 2992 00a0 00C0      		rjmp .L178
 2993               	.LVL279:
 2994               	.L183:
  66:LUFA/LUFA/Drivers/USB/Core/AVR8/Template/Template_Endpoint_Control_W.c **** 			}
 2995               		.loc 4 66 20 view .LVU792
 2996               	.LBE362:
 2997               	.LBE355:
 2998               	.LBB369:
  76:LUFA/LUFA/Drivers/USB/Core/AVR8/Template/Template_Endpoint_Control_W.c **** 
 2999               		.loc 4 76 3 is_stmt 1 view .LVU793
  76:LUFA/LUFA/Drivers/USB/Core/AVR8/Template/Template_Endpoint_Control_W.c **** 
 3000               		.loc 4 76 11 is_stmt 0 view .LVU794
 3001 00a2 8EB3      		in r24,0x1e
 3002               	.LVL280:
  78:LUFA/LUFA/Drivers/USB/Core/AVR8/Template/Template_Endpoint_Control_W.c **** 		  return ENDPOINT_RWCSTREAM_DeviceDisconnected;
 3003               		.loc 4 78 3 is_stmt 1 view .LVU795
  78:LUFA/LUFA/Drivers/USB/Core/AVR8/Template/Template_Endpoint_Control_W.c **** 		  return ENDPOINT_RWCSTREAM_DeviceDisconnected;
 3004               		.loc 4 78 6 is_stmt 0 view .LVU796
 3005 00a4 8823      		tst r24
 3006 00a6 01F0      		breq .L188
  80:LUFA/LUFA/Drivers/USB/Core/AVR8/Template/Template_Endpoint_Control_W.c **** 		  return ENDPOINT_RWCSTREAM_BusSuspended;
 3007               		.loc 4 80 8 is_stmt 1 view .LVU797
  80:LUFA/LUFA/Drivers/USB/Core/AVR8/Template/Template_Endpoint_Control_W.c **** 		  return ENDPOINT_RWCSTREAM_BusSuspended;
 3008               		.loc 4 80 11 is_stmt 0 view .LVU798
 3009 00a8 8530      		cpi r24,lo8(5)
 3010 00aa 01F4      		brne .L195
 3011               	.LVL281:
 3012               	.L189:
  80:LUFA/LUFA/Drivers/USB/Core/AVR8/Template/Template_Endpoint_Control_W.c **** 		  return ENDPOINT_RWCSTREAM_BusSuspended;
 3013               		.loc 4 80 11 view .LVU799
 3014               	.LBE369:
 3015               	.LBB370:
  51:LUFA/LUFA/Drivers/USB/Core/AVR8/Template/Template_Endpoint_Control_W.c **** 		else if (Endpoint_IsSETUPReceived())
 3016               		.loc 4 51 12 view .LVU800
 3017 00ac 83E0      		ldi r24,lo8(3)
 3018               	/* epilogue start */
 3019               	.LBE370:
 3020               		.loc 4 85 1 view .LVU801
 3021 00ae 0895      		ret
 3022               	.LVL282:
 3023               	.L187:
 3024               	.LBB371:
  53:LUFA/LUFA/Drivers/USB/Core/AVR8/Template/Template_Endpoint_Control_W.c **** 		else if (Endpoint_IsOUTReceived())
 3025               		.loc 4 53 12 view .LVU802
 3026 00b0 81E0      		ldi r24,lo8(1)
 3027               	.LVL283:
  53:LUFA/LUFA/Drivers/USB/Core/AVR8/Template/Template_Endpoint_Control_W.c **** 		else if (Endpoint_IsOUTReceived())
 3028               		.loc 4 53 12 view .LVU803
 3029 00b2 0895      		ret
 3030               	.L188:
  49:LUFA/LUFA/Drivers/USB/Core/AVR8/Template/Template_Endpoint_Control_W.c **** 		else if (USB_DeviceState_LCL == DEVICE_STATE_Suspended)
 3031               		.loc 4 49 12 view .LVU804
 3032 00b4 82E0      		ldi r24,lo8(2)
 3033 00b6 0895      		ret
 3034               	.LBE371:
 3035               		.cfi_endproc
 3036               	.LFE94:
 3038               		.section	.text.Endpoint_Read_Control_Stream_LE,"ax",@progbits
 3039               	.global	Endpoint_Read_Control_Stream_LE
 3041               	Endpoint_Read_Control_Stream_LE:
 3042               	.LVL284:
 3043               	.LFB95:
 3044               		.file 5 "LUFA/LUFA/Drivers/USB/Core/AVR8/Template/Template_Endpoint_Control_R.c"
   1:LUFA/LUFA/Drivers/USB/Core/AVR8/Template/Template_Endpoint_Control_R.c **** /*
   2:LUFA/LUFA/Drivers/USB/Core/AVR8/Template/Template_Endpoint_Control_R.c ****              LUFA Library
   3:LUFA/LUFA/Drivers/USB/Core/AVR8/Template/Template_Endpoint_Control_R.c ****      Copyright (C) Dean Camera, 2011.
   4:LUFA/LUFA/Drivers/USB/Core/AVR8/Template/Template_Endpoint_Control_R.c **** 
   5:LUFA/LUFA/Drivers/USB/Core/AVR8/Template/Template_Endpoint_Control_R.c ****   dean [at] fourwalledcubicle [dot] com
   6:LUFA/LUFA/Drivers/USB/Core/AVR8/Template/Template_Endpoint_Control_R.c ****            www.lufa-lib.org
   7:LUFA/LUFA/Drivers/USB/Core/AVR8/Template/Template_Endpoint_Control_R.c **** */
   8:LUFA/LUFA/Drivers/USB/Core/AVR8/Template/Template_Endpoint_Control_R.c **** 
   9:LUFA/LUFA/Drivers/USB/Core/AVR8/Template/Template_Endpoint_Control_R.c **** /*
  10:LUFA/LUFA/Drivers/USB/Core/AVR8/Template/Template_Endpoint_Control_R.c ****   Copyright 2011  Dean Camera (dean [at] fourwalledcubicle [dot] com)
  11:LUFA/LUFA/Drivers/USB/Core/AVR8/Template/Template_Endpoint_Control_R.c **** 
  12:LUFA/LUFA/Drivers/USB/Core/AVR8/Template/Template_Endpoint_Control_R.c ****   Permission to use, copy, modify, distribute, and sell this
  13:LUFA/LUFA/Drivers/USB/Core/AVR8/Template/Template_Endpoint_Control_R.c ****   software and its documentation for any purpose is hereby granted
  14:LUFA/LUFA/Drivers/USB/Core/AVR8/Template/Template_Endpoint_Control_R.c ****   without fee, provided that the above copyright notice appear in
  15:LUFA/LUFA/Drivers/USB/Core/AVR8/Template/Template_Endpoint_Control_R.c ****   all copies and that both that the copyright notice and this
  16:LUFA/LUFA/Drivers/USB/Core/AVR8/Template/Template_Endpoint_Control_R.c ****   permission notice and warranty disclaimer appear in supporting
  17:LUFA/LUFA/Drivers/USB/Core/AVR8/Template/Template_Endpoint_Control_R.c ****   documentation, and that the name of the author not be used in
  18:LUFA/LUFA/Drivers/USB/Core/AVR8/Template/Template_Endpoint_Control_R.c ****   advertising or publicity pertaining to distribution of the
  19:LUFA/LUFA/Drivers/USB/Core/AVR8/Template/Template_Endpoint_Control_R.c ****   software without specific, written prior permission.
  20:LUFA/LUFA/Drivers/USB/Core/AVR8/Template/Template_Endpoint_Control_R.c **** 
  21:LUFA/LUFA/Drivers/USB/Core/AVR8/Template/Template_Endpoint_Control_R.c ****   The author disclaim all warranties with regard to this
  22:LUFA/LUFA/Drivers/USB/Core/AVR8/Template/Template_Endpoint_Control_R.c ****   software, including all implied warranties of merchantability
  23:LUFA/LUFA/Drivers/USB/Core/AVR8/Template/Template_Endpoint_Control_R.c ****   and fitness.  In no event shall the author be liable for any
  24:LUFA/LUFA/Drivers/USB/Core/AVR8/Template/Template_Endpoint_Control_R.c ****   special, indirect or consequential damages or any damages
  25:LUFA/LUFA/Drivers/USB/Core/AVR8/Template/Template_Endpoint_Control_R.c ****   whatsoever resulting from loss of use, data or profits, whether
  26:LUFA/LUFA/Drivers/USB/Core/AVR8/Template/Template_Endpoint_Control_R.c ****   in an action of contract, negligence or other tortious action,
  27:LUFA/LUFA/Drivers/USB/Core/AVR8/Template/Template_Endpoint_Control_R.c ****   arising out of or in connection with the use or performance of
  28:LUFA/LUFA/Drivers/USB/Core/AVR8/Template/Template_Endpoint_Control_R.c ****   this software.
  29:LUFA/LUFA/Drivers/USB/Core/AVR8/Template/Template_Endpoint_Control_R.c **** */
  30:LUFA/LUFA/Drivers/USB/Core/AVR8/Template/Template_Endpoint_Control_R.c **** 
  31:LUFA/LUFA/Drivers/USB/Core/AVR8/Template/Template_Endpoint_Control_R.c **** #if defined(TEMPLATE_FUNC_NAME)
  32:LUFA/LUFA/Drivers/USB/Core/AVR8/Template/Template_Endpoint_Control_R.c **** 
  33:LUFA/LUFA/Drivers/USB/Core/AVR8/Template/Template_Endpoint_Control_R.c **** uint8_t TEMPLATE_FUNC_NAME (void* const Buffer,
  34:LUFA/LUFA/Drivers/USB/Core/AVR8/Template/Template_Endpoint_Control_R.c ****                             uint16_t Length)
  35:LUFA/LUFA/Drivers/USB/Core/AVR8/Template/Template_Endpoint_Control_R.c **** {
 3045               		.loc 5 35 1 is_stmt 1 view -0
 3046               		.cfi_startproc
 3047               	/* prologue: function */
 3048               	/* frame size = 0 */
 3049               	/* stack size = 0 */
 3050               	.L__stack_usage = 0
 3051               		.loc 5 35 1 is_stmt 0 view .LVU806
 3052 0000 FC01      		movw r30,r24
 3053 0002 CB01      		movw r24,r22
 3054               	.LVL285:
  36:LUFA/LUFA/Drivers/USB/Core/AVR8/Template/Template_Endpoint_Control_R.c **** 	uint8_t* DataStream = ((uint8_t*)Buffer + TEMPLATE_BUFFER_OFFSET(Length));
 3055               		.loc 5 36 2 is_stmt 1 view .LVU807
  37:LUFA/LUFA/Drivers/USB/Core/AVR8/Template/Template_Endpoint_Control_R.c **** 
  38:LUFA/LUFA/Drivers/USB/Core/AVR8/Template/Template_Endpoint_Control_R.c **** 	if (!(Length))
 3056               		.loc 5 38 2 view .LVU808
 3057               		.loc 5 38 5 is_stmt 0 view .LVU809
 3058 0004 0097      		sbiw r24,0
 3059 0006 01F4      		brne .L204
 3060               	.LVL286:
 3061               	.L205:
 3062               	.LBB372:
  39:LUFA/LUFA/Drivers/USB/Core/AVR8/Template/Template_Endpoint_Control_R.c **** 	  Endpoint_ClearOUT();
  40:LUFA/LUFA/Drivers/USB/Core/AVR8/Template/Template_Endpoint_Control_R.c **** 
  41:LUFA/LUFA/Drivers/USB/Core/AVR8/Template/Template_Endpoint_Control_R.c **** 	while (Length)
  42:LUFA/LUFA/Drivers/USB/Core/AVR8/Template/Template_Endpoint_Control_R.c **** 	{
  43:LUFA/LUFA/Drivers/USB/Core/AVR8/Template/Template_Endpoint_Control_R.c **** 		uint8_t USB_DeviceState_LCL = USB_DeviceState;
  44:LUFA/LUFA/Drivers/USB/Core/AVR8/Template/Template_Endpoint_Control_R.c **** 
  45:LUFA/LUFA/Drivers/USB/Core/AVR8/Template/Template_Endpoint_Control_R.c **** 		if (USB_DeviceState_LCL == DEVICE_STATE_Unattached)
  46:LUFA/LUFA/Drivers/USB/Core/AVR8/Template/Template_Endpoint_Control_R.c **** 		  return ENDPOINT_RWCSTREAM_DeviceDisconnected;
  47:LUFA/LUFA/Drivers/USB/Core/AVR8/Template/Template_Endpoint_Control_R.c **** 		else if (USB_DeviceState_LCL == DEVICE_STATE_Suspended)
  48:LUFA/LUFA/Drivers/USB/Core/AVR8/Template/Template_Endpoint_Control_R.c **** 		  return ENDPOINT_RWCSTREAM_BusSuspended;
  49:LUFA/LUFA/Drivers/USB/Core/AVR8/Template/Template_Endpoint_Control_R.c **** 		else if (Endpoint_IsSETUPReceived())
  50:LUFA/LUFA/Drivers/USB/Core/AVR8/Template/Template_Endpoint_Control_R.c **** 		  return ENDPOINT_RWCSTREAM_HostAborted;
  51:LUFA/LUFA/Drivers/USB/Core/AVR8/Template/Template_Endpoint_Control_R.c **** 
  52:LUFA/LUFA/Drivers/USB/Core/AVR8/Template/Template_Endpoint_Control_R.c **** 		if (Endpoint_IsOUTReceived())
  53:LUFA/LUFA/Drivers/USB/Core/AVR8/Template/Template_Endpoint_Control_R.c **** 		{
  54:LUFA/LUFA/Drivers/USB/Core/AVR8/Template/Template_Endpoint_Control_R.c **** 			while (Length && Endpoint_BytesInEndpoint())
  55:LUFA/LUFA/Drivers/USB/Core/AVR8/Template/Template_Endpoint_Control_R.c **** 			{
  56:LUFA/LUFA/Drivers/USB/Core/AVR8/Template/Template_Endpoint_Control_R.c **** 				TEMPLATE_TRANSFER_BYTE(DataStream);
  57:LUFA/LUFA/Drivers/USB/Core/AVR8/Template/Template_Endpoint_Control_R.c **** 				TEMPLATE_BUFFER_MOVE(DataStream, 1);
  58:LUFA/LUFA/Drivers/USB/Core/AVR8/Template/Template_Endpoint_Control_R.c **** 				Length--;
  59:LUFA/LUFA/Drivers/USB/Core/AVR8/Template/Template_Endpoint_Control_R.c **** 			}
  60:LUFA/LUFA/Drivers/USB/Core/AVR8/Template/Template_Endpoint_Control_R.c **** 
  61:LUFA/LUFA/Drivers/USB/Core/AVR8/Template/Template_Endpoint_Control_R.c **** 			Endpoint_ClearOUT();
 3063               		.loc 5 61 4 is_stmt 1 view .LVU810
 3064               	.LBB373:
 3065               	.LBI373:
 528:LUFA/LUFA/Drivers/USB/Core/AVR8/../AVR8/../AVR8/Endpoint_AVR8.h **** 			{
 3066               		.loc 2 528 23 view .LVU811
 3067               	.LBB374:
 531:LUFA/LUFA/Drivers/USB/Core/AVR8/../AVR8/../AVR8/Endpoint_AVR8.h **** 				#else
 3068               		.loc 2 531 6 view .LVU812
 531:LUFA/LUFA/Drivers/USB/Core/AVR8/../AVR8/../AVR8/Endpoint_AVR8.h **** 				#else
 3069               		.loc 2 531 13 is_stmt 0 view .LVU813
 3070 0008 2091 E800 		lds r18,232
 3071 000c 2B77      		andi r18,lo8(123)
 3072 000e 2093 E800 		sts 232,r18
 3073               	.L204:
 531:LUFA/LUFA/Drivers/USB/Core/AVR8/../AVR8/../AVR8/Endpoint_AVR8.h **** 				#else
 3074               		.loc 2 531 13 view .LVU814
 3075               	.LBE374:
 3076               	.LBE373:
 3077               	.LBE372:
  41:LUFA/LUFA/Drivers/USB/Core/AVR8/Template/Template_Endpoint_Control_R.c **** 	{
 3078               		.loc 5 41 8 is_stmt 1 view .LVU815
 3079 0012 0097      		sbiw r24,0
 3080 0014 01F4      		brne .L207
 3081               	.LVL287:
 3082               	.L208:
  62:LUFA/LUFA/Drivers/USB/Core/AVR8/Template/Template_Endpoint_Control_R.c **** 		}
  63:LUFA/LUFA/Drivers/USB/Core/AVR8/Template/Template_Endpoint_Control_R.c **** 	}
  64:LUFA/LUFA/Drivers/USB/Core/AVR8/Template/Template_Endpoint_Control_R.c **** 
  65:LUFA/LUFA/Drivers/USB/Core/AVR8/Template/Template_Endpoint_Control_R.c **** 	while (!(Endpoint_IsINReady()))
 3083               		.loc 5 65 8 view .LVU816
 3084               	.LBB383:
 3085               	.LBI383:
 465:LUFA/LUFA/Drivers/USB/Core/AVR8/../AVR8/../AVR8/Endpoint_AVR8.h **** 			{
 3086               		.loc 2 465 23 view .LVU817
 3087               	.LBB384:
 467:LUFA/LUFA/Drivers/USB/Core/AVR8/../AVR8/../AVR8/Endpoint_AVR8.h **** 			}
 3088               		.loc 2 467 5 view .LVU818
 467:LUFA/LUFA/Drivers/USB/Core/AVR8/../AVR8/../AVR8/Endpoint_AVR8.h **** 			}
 3089               		.loc 2 467 14 is_stmt 0 view .LVU819
 3090 0016 8091 E800 		lds r24,232
 3091               	.LBE384:
 3092               	.LBE383:
 3093               		.loc 5 65 8 view .LVU820
 3094 001a 80FF      		sbrs r24,0
 3095 001c 00C0      		rjmp .L209
  66:LUFA/LUFA/Drivers/USB/Core/AVR8/Template/Template_Endpoint_Control_R.c **** 	{
  67:LUFA/LUFA/Drivers/USB/Core/AVR8/Template/Template_Endpoint_Control_R.c **** 		uint8_t USB_DeviceState_LCL = USB_DeviceState;
  68:LUFA/LUFA/Drivers/USB/Core/AVR8/Template/Template_Endpoint_Control_R.c **** 
  69:LUFA/LUFA/Drivers/USB/Core/AVR8/Template/Template_Endpoint_Control_R.c **** 		if (USB_DeviceState_LCL == DEVICE_STATE_Unattached)
  70:LUFA/LUFA/Drivers/USB/Core/AVR8/Template/Template_Endpoint_Control_R.c **** 		  return ENDPOINT_RWCSTREAM_DeviceDisconnected;
  71:LUFA/LUFA/Drivers/USB/Core/AVR8/Template/Template_Endpoint_Control_R.c **** 		else if (USB_DeviceState_LCL == DEVICE_STATE_Suspended)
  72:LUFA/LUFA/Drivers/USB/Core/AVR8/Template/Template_Endpoint_Control_R.c **** 		  return ENDPOINT_RWCSTREAM_BusSuspended;
  73:LUFA/LUFA/Drivers/USB/Core/AVR8/Template/Template_Endpoint_Control_R.c **** 	}
  74:LUFA/LUFA/Drivers/USB/Core/AVR8/Template/Template_Endpoint_Control_R.c **** 
  75:LUFA/LUFA/Drivers/USB/Core/AVR8/Template/Template_Endpoint_Control_R.c **** 	return ENDPOINT_RWCSTREAM_NoError;
 3096               		.loc 5 75 9 view .LVU821
 3097 001e 80E0      		ldi r24,0
 3098 0020 0895      		ret
 3099               	.LVL288:
 3100               	.L207:
 3101               	.LBB385:
  43:LUFA/LUFA/Drivers/USB/Core/AVR8/Template/Template_Endpoint_Control_R.c **** 
 3102               		.loc 5 43 3 is_stmt 1 view .LVU822
  43:LUFA/LUFA/Drivers/USB/Core/AVR8/Template/Template_Endpoint_Control_R.c **** 
 3103               		.loc 5 43 11 is_stmt 0 view .LVU823
 3104 0022 2EB3      		in r18,0x1e
 3105               	.LVL289:
  45:LUFA/LUFA/Drivers/USB/Core/AVR8/Template/Template_Endpoint_Control_R.c **** 		  return ENDPOINT_RWCSTREAM_DeviceDisconnected;
 3106               		.loc 5 45 3 is_stmt 1 view .LVU824
  45:LUFA/LUFA/Drivers/USB/Core/AVR8/Template/Template_Endpoint_Control_R.c **** 		  return ENDPOINT_RWCSTREAM_DeviceDisconnected;
 3107               		.loc 5 45 6 is_stmt 0 view .LVU825
 3108 0024 2223      		tst r18
 3109 0026 01F0      		breq .L213
  47:LUFA/LUFA/Drivers/USB/Core/AVR8/Template/Template_Endpoint_Control_R.c **** 		  return ENDPOINT_RWCSTREAM_BusSuspended;
 3110               		.loc 5 47 8 is_stmt 1 view .LVU826
  47:LUFA/LUFA/Drivers/USB/Core/AVR8/Template/Template_Endpoint_Control_R.c **** 		  return ENDPOINT_RWCSTREAM_BusSuspended;
 3111               		.loc 5 47 11 is_stmt 0 view .LVU827
 3112 0028 2530      		cpi r18,lo8(5)
 3113 002a 01F0      		breq .L214
  49:LUFA/LUFA/Drivers/USB/Core/AVR8/Template/Template_Endpoint_Control_R.c **** 		  return ENDPOINT_RWCSTREAM_HostAborted;
 3114               		.loc 5 49 8 is_stmt 1 view .LVU828
 3115               	.LBB375:
 3116               	.LBI375:
 489:LUFA/LUFA/Drivers/USB/Core/AVR8/../AVR8/../AVR8/Endpoint_AVR8.h **** 			{
 3117               		.loc 2 489 23 view .LVU829
 3118               	.LBB376:
 491:LUFA/LUFA/Drivers/USB/Core/AVR8/../AVR8/../AVR8/Endpoint_AVR8.h **** 			}
 3119               		.loc 2 491 5 view .LVU830
 491:LUFA/LUFA/Drivers/USB/Core/AVR8/../AVR8/../AVR8/Endpoint_AVR8.h **** 			}
 3120               		.loc 2 491 14 is_stmt 0 view .LVU831
 3121 002c 2091 E800 		lds r18,232
 3122               	.LVL290:
 491:LUFA/LUFA/Drivers/USB/Core/AVR8/../AVR8/../AVR8/Endpoint_AVR8.h **** 			}
 3123               		.loc 2 491 14 view .LVU832
 3124               	.LBE376:
 3125               	.LBE375:
  49:LUFA/LUFA/Drivers/USB/Core/AVR8/Template/Template_Endpoint_Control_R.c **** 		  return ENDPOINT_RWCSTREAM_HostAborted;
 3126               		.loc 5 49 11 view .LVU833
 3127 0030 23FD      		sbrc r18,3
 3128 0032 00C0      		rjmp .L212
  52:LUFA/LUFA/Drivers/USB/Core/AVR8/Template/Template_Endpoint_Control_R.c **** 		{
 3129               		.loc 5 52 3 is_stmt 1 view .LVU834
 3130               	.LBB377:
 3131               	.LBI377:
 477:LUFA/LUFA/Drivers/USB/Core/AVR8/../AVR8/../AVR8/Endpoint_AVR8.h **** 			{
 3132               		.loc 2 477 23 view .LVU835
 3133               	.LBB378:
 479:LUFA/LUFA/Drivers/USB/Core/AVR8/../AVR8/../AVR8/Endpoint_AVR8.h **** 			}
 3134               		.loc 2 479 5 view .LVU836
 479:LUFA/LUFA/Drivers/USB/Core/AVR8/../AVR8/../AVR8/Endpoint_AVR8.h **** 			}
 3135               		.loc 2 479 14 is_stmt 0 view .LVU837
 3136 0034 2091 E800 		lds r18,232
 3137               	.LBE378:
 3138               	.LBE377:
  52:LUFA/LUFA/Drivers/USB/Core/AVR8/Template/Template_Endpoint_Control_R.c **** 		{
 3139               		.loc 5 52 6 view .LVU838
 3140 0038 22FF      		sbrs r18,2
 3141 003a 00C0      		rjmp .L204
 3142               	.L203:
 3143               	.LBB379:
 3144               	.LBI379:
 290:LUFA/LUFA/Drivers/USB/Core/AVR8/../AVR8/../AVR8/Endpoint_AVR8.h **** 			{
 3145               		.loc 2 290 27 is_stmt 1 view .LVU839
 3146               	.LBB380:
 295:LUFA/LUFA/Drivers/USB/Core/AVR8/../AVR8/../AVR8/Endpoint_AVR8.h **** 				#elif defined(USB_SERIES_2_AVR)
 3147               		.loc 2 295 6 view .LVU840
 295:LUFA/LUFA/Drivers/USB/Core/AVR8/../AVR8/../AVR8/Endpoint_AVR8.h **** 				#elif defined(USB_SERIES_2_AVR)
 3148               		.loc 2 295 25 is_stmt 0 view .LVU841
 3149 003c 3091 F300 		lds r19,243
 295:LUFA/LUFA/Drivers/USB/Core/AVR8/../AVR8/../AVR8/Endpoint_AVR8.h **** 				#elif defined(USB_SERIES_2_AVR)
 3150               		.loc 2 295 40 view .LVU842
 3151 0040 2091 F200 		lds r18,242
 3152               	.LBE380:
 3153               	.LBE379:
  54:LUFA/LUFA/Drivers/USB/Core/AVR8/Template/Template_Endpoint_Control_R.c **** 			{
 3154               		.loc 5 54 18 view .LVU843
 3155 0044 232B      		or r18,r19
 3156 0046 01F0      		breq .L205
  56:LUFA/LUFA/Drivers/USB/Core/AVR8/Template/Template_Endpoint_Control_R.c **** 				TEMPLATE_BUFFER_MOVE(DataStream, 1);
 3157               		.loc 5 56 5 is_stmt 1 view .LVU844
 3158               	.LBB381:
 3159               	.LBI381:
 610:LUFA/LUFA/Drivers/USB/Core/AVR8/../AVR8/../AVR8/Endpoint_AVR8.h **** 			{
 3160               		.loc 2 610 26 view .LVU845
 3161               	.LBB382:
 612:LUFA/LUFA/Drivers/USB/Core/AVR8/../AVR8/../AVR8/Endpoint_AVR8.h **** 			}
 3162               		.loc 2 612 5 view .LVU846
 612:LUFA/LUFA/Drivers/USB/Core/AVR8/../AVR8/../AVR8/Endpoint_AVR8.h **** 			}
 3163               		.loc 2 612 12 is_stmt 0 view .LVU847
 3164 0048 2091 F100 		lds r18,241
 3165               	.LBE382:
 3166               	.LBE381:
  56:LUFA/LUFA/Drivers/USB/Core/AVR8/Template/Template_Endpoint_Control_R.c **** 				TEMPLATE_BUFFER_MOVE(DataStream, 1);
 3167               		.loc 5 56 5 view .LVU848
 3168 004c 2193      		st Z+,r18
 3169               	.LVL291:
  57:LUFA/LUFA/Drivers/USB/Core/AVR8/Template/Template_Endpoint_Control_R.c **** 				Length--;
 3170               		.loc 5 57 5 is_stmt 1 view .LVU849
  58:LUFA/LUFA/Drivers/USB/Core/AVR8/Template/Template_Endpoint_Control_R.c **** 			}
 3171               		.loc 5 58 5 view .LVU850
  58:LUFA/LUFA/Drivers/USB/Core/AVR8/Template/Template_Endpoint_Control_R.c **** 			}
 3172               		.loc 5 58 11 is_stmt 0 view .LVU851
 3173 004e 0197      		sbiw r24,1
 3174               	.LVL292:
  54:LUFA/LUFA/Drivers/USB/Core/AVR8/Template/Template_Endpoint_Control_R.c **** 			{
 3175               		.loc 5 54 10 is_stmt 1 view .LVU852
 3176 0050 01F4      		brne .L203
 3177 0052 00C0      		rjmp .L205
 3178               	.LVL293:
 3179               	.L209:
  54:LUFA/LUFA/Drivers/USB/Core/AVR8/Template/Template_Endpoint_Control_R.c **** 			{
 3180               		.loc 5 54 10 is_stmt 0 view .LVU853
 3181               	.LBE385:
 3182               	.LBB386:
  67:LUFA/LUFA/Drivers/USB/Core/AVR8/Template/Template_Endpoint_Control_R.c **** 
 3183               		.loc 5 67 3 is_stmt 1 view .LVU854
  67:LUFA/LUFA/Drivers/USB/Core/AVR8/Template/Template_Endpoint_Control_R.c **** 
 3184               		.loc 5 67 11 is_stmt 0 view .LVU855
 3185 0054 8EB3      		in r24,0x1e
 3186               	.LVL294:
  69:LUFA/LUFA/Drivers/USB/Core/AVR8/Template/Template_Endpoint_Control_R.c **** 		  return ENDPOINT_RWCSTREAM_DeviceDisconnected;
 3187               		.loc 5 69 3 is_stmt 1 view .LVU856
  69:LUFA/LUFA/Drivers/USB/Core/AVR8/Template/Template_Endpoint_Control_R.c **** 		  return ENDPOINT_RWCSTREAM_DeviceDisconnected;
 3188               		.loc 5 69 6 is_stmt 0 view .LVU857
 3189 0056 8823      		tst r24
 3190 0058 01F0      		breq .L213
  71:LUFA/LUFA/Drivers/USB/Core/AVR8/Template/Template_Endpoint_Control_R.c **** 		  return ENDPOINT_RWCSTREAM_BusSuspended;
 3191               		.loc 5 71 8 is_stmt 1 view .LVU858
  71:LUFA/LUFA/Drivers/USB/Core/AVR8/Template/Template_Endpoint_Control_R.c **** 		  return ENDPOINT_RWCSTREAM_BusSuspended;
 3192               		.loc 5 71 11 is_stmt 0 view .LVU859
 3193 005a 8530      		cpi r24,lo8(5)
 3194 005c 01F4      		brne .L208
 3195               	.LVL295:
 3196               	.L214:
  71:LUFA/LUFA/Drivers/USB/Core/AVR8/Template/Template_Endpoint_Control_R.c **** 		  return ENDPOINT_RWCSTREAM_BusSuspended;
 3197               		.loc 5 71 11 view .LVU860
 3198               	.LBE386:
 3199               	.LBB387:
  48:LUFA/LUFA/Drivers/USB/Core/AVR8/Template/Template_Endpoint_Control_R.c **** 		else if (Endpoint_IsSETUPReceived())
 3200               		.loc 5 48 12 view .LVU861
 3201 005e 83E0      		ldi r24,lo8(3)
 3202               	/* epilogue start */
 3203               	.LBE387:
  76:LUFA/LUFA/Drivers/USB/Core/AVR8/Template/Template_Endpoint_Control_R.c **** }
 3204               		.loc 5 76 1 view .LVU862
 3205 0060 0895      		ret
 3206               	.LVL296:
 3207               	.L212:
 3208               	.LBB388:
  50:LUFA/LUFA/Drivers/USB/Core/AVR8/Template/Template_Endpoint_Control_R.c **** 
 3209               		.loc 5 50 12 view .LVU863
 3210 0062 81E0      		ldi r24,lo8(1)
 3211               	.LVL297:
  50:LUFA/LUFA/Drivers/USB/Core/AVR8/Template/Template_Endpoint_Control_R.c **** 
 3212               		.loc 5 50 12 view .LVU864
 3213 0064 0895      		ret
 3214               	.L213:
  46:LUFA/LUFA/Drivers/USB/Core/AVR8/Template/Template_Endpoint_Control_R.c **** 		else if (USB_DeviceState_LCL == DEVICE_STATE_Suspended)
 3215               		.loc 5 46 12 view .LVU865
 3216 0066 82E0      		ldi r24,lo8(2)
 3217 0068 0895      		ret
 3218               	.LBE388:
 3219               		.cfi_endproc
 3220               	.LFE95:
 3222               		.section	.text.Endpoint_Read_Control_Stream_BE,"ax",@progbits
 3223               	.global	Endpoint_Read_Control_Stream_BE
 3225               	Endpoint_Read_Control_Stream_BE:
 3226               	.LVL298:
 3227               	.LFB96:
  35:LUFA/LUFA/Drivers/USB/Core/AVR8/Template/Template_Endpoint_Control_R.c **** 	uint8_t* DataStream = ((uint8_t*)Buffer + TEMPLATE_BUFFER_OFFSET(Length));
 3228               		.loc 5 35 1 is_stmt 1 view -0
 3229               		.cfi_startproc
 3230               	/* prologue: function */
 3231               	/* frame size = 0 */
 3232               	/* stack size = 0 */
 3233               	.L__stack_usage = 0
  35:LUFA/LUFA/Drivers/USB/Core/AVR8/Template/Template_Endpoint_Control_R.c **** 	uint8_t* DataStream = ((uint8_t*)Buffer + TEMPLATE_BUFFER_OFFSET(Length));
 3234               		.loc 5 35 1 is_stmt 0 view .LVU867
 3235 0000 9B01      		movw r18,r22
  36:LUFA/LUFA/Drivers/USB/Core/AVR8/Template/Template_Endpoint_Control_R.c **** 
 3236               		.loc 5 36 2 is_stmt 1 view .LVU868
  36:LUFA/LUFA/Drivers/USB/Core/AVR8/Template/Template_Endpoint_Control_R.c **** 
 3237               		.loc 5 36 42 is_stmt 0 view .LVU869
 3238 0002 FB01      		movw r30,r22
 3239 0004 3197      		sbiw r30,1
  36:LUFA/LUFA/Drivers/USB/Core/AVR8/Template/Template_Endpoint_Control_R.c **** 
 3240               		.loc 5 36 11 view .LVU870
 3241 0006 E80F      		add r30,r24
 3242 0008 F91F      		adc r31,r25
 3243               	.LVL299:
  38:LUFA/LUFA/Drivers/USB/Core/AVR8/Template/Template_Endpoint_Control_R.c **** 	  Endpoint_ClearOUT();
 3244               		.loc 5 38 2 is_stmt 1 view .LVU871
  38:LUFA/LUFA/Drivers/USB/Core/AVR8/Template/Template_Endpoint_Control_R.c **** 	  Endpoint_ClearOUT();
 3245               		.loc 5 38 5 is_stmt 0 view .LVU872
 3246 000a 672B      		or r22,r23
 3247 000c 01F4      		brne .L224
 3248               	.LVL300:
 3249               	.L225:
 3250               	.LBB389:
  61:LUFA/LUFA/Drivers/USB/Core/AVR8/Template/Template_Endpoint_Control_R.c **** 		}
 3251               		.loc 5 61 4 is_stmt 1 view .LVU873
 3252               	.LBB390:
 3253               	.LBI390:
 528:LUFA/LUFA/Drivers/USB/Core/AVR8/../AVR8/../AVR8/Endpoint_AVR8.h **** 			{
 3254               		.loc 2 528 23 view .LVU874
 3255               	.LBB391:
 531:LUFA/LUFA/Drivers/USB/Core/AVR8/../AVR8/../AVR8/Endpoint_AVR8.h **** 				#else
 3256               		.loc 2 531 6 view .LVU875
 531:LUFA/LUFA/Drivers/USB/Core/AVR8/../AVR8/../AVR8/Endpoint_AVR8.h **** 				#else
 3257               		.loc 2 531 13 is_stmt 0 view .LVU876
 3258 000e 8091 E800 		lds r24,232
 3259 0012 8B77      		andi r24,lo8(123)
 3260 0014 8093 E800 		sts 232,r24
 3261               	.L224:
 531:LUFA/LUFA/Drivers/USB/Core/AVR8/../AVR8/../AVR8/Endpoint_AVR8.h **** 				#else
 3262               		.loc 2 531 13 view .LVU877
 3263               	.LBE391:
 3264               	.LBE390:
 3265               	.LBE389:
  41:LUFA/LUFA/Drivers/USB/Core/AVR8/Template/Template_Endpoint_Control_R.c **** 	{
 3266               		.loc 5 41 8 is_stmt 1 view .LVU878
 3267 0018 2115      		cp r18,__zero_reg__
 3268 001a 3105      		cpc r19,__zero_reg__
 3269 001c 01F4      		brne .L227
 3270               	.L228:
  65:LUFA/LUFA/Drivers/USB/Core/AVR8/Template/Template_Endpoint_Control_R.c **** 	{
 3271               		.loc 5 65 8 view .LVU879
 3272               	.LBB400:
 3273               	.LBI400:
 465:LUFA/LUFA/Drivers/USB/Core/AVR8/../AVR8/../AVR8/Endpoint_AVR8.h **** 			{
 3274               		.loc 2 465 23 view .LVU880
 3275               	.LBB401:
 467:LUFA/LUFA/Drivers/USB/Core/AVR8/../AVR8/../AVR8/Endpoint_AVR8.h **** 			}
 3276               		.loc 2 467 5 view .LVU881
 467:LUFA/LUFA/Drivers/USB/Core/AVR8/../AVR8/../AVR8/Endpoint_AVR8.h **** 			}
 3277               		.loc 2 467 14 is_stmt 0 view .LVU882
 3278 001e 8091 E800 		lds r24,232
 3279               	.LBE401:
 3280               	.LBE400:
  65:LUFA/LUFA/Drivers/USB/Core/AVR8/Template/Template_Endpoint_Control_R.c **** 	{
 3281               		.loc 5 65 8 view .LVU883
 3282 0022 80FF      		sbrs r24,0
 3283 0024 00C0      		rjmp .L229
  75:LUFA/LUFA/Drivers/USB/Core/AVR8/Template/Template_Endpoint_Control_R.c **** }
 3284               		.loc 5 75 9 view .LVU884
 3285 0026 80E0      		ldi r24,0
 3286 0028 0895      		ret
 3287               	.L227:
 3288               	.LBB402:
  43:LUFA/LUFA/Drivers/USB/Core/AVR8/Template/Template_Endpoint_Control_R.c **** 
 3289               		.loc 5 43 3 is_stmt 1 view .LVU885
  43:LUFA/LUFA/Drivers/USB/Core/AVR8/Template/Template_Endpoint_Control_R.c **** 
 3290               		.loc 5 43 11 is_stmt 0 view .LVU886
 3291 002a 8EB3      		in r24,0x1e
 3292               	.LVL301:
  45:LUFA/LUFA/Drivers/USB/Core/AVR8/Template/Template_Endpoint_Control_R.c **** 		  return ENDPOINT_RWCSTREAM_DeviceDisconnected;
 3293               		.loc 5 45 3 is_stmt 1 view .LVU887
  45:LUFA/LUFA/Drivers/USB/Core/AVR8/Template/Template_Endpoint_Control_R.c **** 		  return ENDPOINT_RWCSTREAM_DeviceDisconnected;
 3294               		.loc 5 45 6 is_stmt 0 view .LVU888
 3295 002c 8823      		tst r24
 3296 002e 01F0      		breq .L233
  47:LUFA/LUFA/Drivers/USB/Core/AVR8/Template/Template_Endpoint_Control_R.c **** 		  return ENDPOINT_RWCSTREAM_BusSuspended;
 3297               		.loc 5 47 8 is_stmt 1 view .LVU889
  47:LUFA/LUFA/Drivers/USB/Core/AVR8/Template/Template_Endpoint_Control_R.c **** 		  return ENDPOINT_RWCSTREAM_BusSuspended;
 3298               		.loc 5 47 11 is_stmt 0 view .LVU890
 3299 0030 8530      		cpi r24,lo8(5)
 3300 0032 01F0      		breq .L234
  49:LUFA/LUFA/Drivers/USB/Core/AVR8/Template/Template_Endpoint_Control_R.c **** 		  return ENDPOINT_RWCSTREAM_HostAborted;
 3301               		.loc 5 49 8 is_stmt 1 view .LVU891
 3302               	.LBB392:
 3303               	.LBI392:
 489:LUFA/LUFA/Drivers/USB/Core/AVR8/../AVR8/../AVR8/Endpoint_AVR8.h **** 			{
 3304               		.loc 2 489 23 view .LVU892
 3305               	.LBB393:
 491:LUFA/LUFA/Drivers/USB/Core/AVR8/../AVR8/../AVR8/Endpoint_AVR8.h **** 			}
 3306               		.loc 2 491 5 view .LVU893
 491:LUFA/LUFA/Drivers/USB/Core/AVR8/../AVR8/../AVR8/Endpoint_AVR8.h **** 			}
 3307               		.loc 2 491 14 is_stmt 0 view .LVU894
 3308 0034 8091 E800 		lds r24,232
 3309               	.LVL302:
 491:LUFA/LUFA/Drivers/USB/Core/AVR8/../AVR8/../AVR8/Endpoint_AVR8.h **** 			}
 3310               		.loc 2 491 14 view .LVU895
 3311               	.LBE393:
 3312               	.LBE392:
  49:LUFA/LUFA/Drivers/USB/Core/AVR8/Template/Template_Endpoint_Control_R.c **** 		  return ENDPOINT_RWCSTREAM_HostAborted;
 3313               		.loc 5 49 11 view .LVU896
 3314 0038 83FD      		sbrc r24,3
 3315 003a 00C0      		rjmp .L232
  52:LUFA/LUFA/Drivers/USB/Core/AVR8/Template/Template_Endpoint_Control_R.c **** 		{
 3316               		.loc 5 52 3 is_stmt 1 view .LVU897
 3317               	.LBB394:
 3318               	.LBI394:
 477:LUFA/LUFA/Drivers/USB/Core/AVR8/../AVR8/../AVR8/Endpoint_AVR8.h **** 			{
 3319               		.loc 2 477 23 view .LVU898
 3320               	.LBB395:
 479:LUFA/LUFA/Drivers/USB/Core/AVR8/../AVR8/../AVR8/Endpoint_AVR8.h **** 			}
 3321               		.loc 2 479 5 view .LVU899
 479:LUFA/LUFA/Drivers/USB/Core/AVR8/../AVR8/../AVR8/Endpoint_AVR8.h **** 			}
 3322               		.loc 2 479 14 is_stmt 0 view .LVU900
 3323 003c 8091 E800 		lds r24,232
 3324               	.LBE395:
 3325               	.LBE394:
  52:LUFA/LUFA/Drivers/USB/Core/AVR8/Template/Template_Endpoint_Control_R.c **** 		{
 3326               		.loc 5 52 6 view .LVU901
 3327 0040 82FF      		sbrs r24,2
 3328 0042 00C0      		rjmp .L224
 3329               	.L223:
 3330               	.LBB396:
 3331               	.LBI396:
 290:LUFA/LUFA/Drivers/USB/Core/AVR8/../AVR8/../AVR8/Endpoint_AVR8.h **** 			{
 3332               		.loc 2 290 27 is_stmt 1 view .LVU902
 3333               	.LBB397:
 295:LUFA/LUFA/Drivers/USB/Core/AVR8/../AVR8/../AVR8/Endpoint_AVR8.h **** 				#elif defined(USB_SERIES_2_AVR)
 3334               		.loc 2 295 6 view .LVU903
 295:LUFA/LUFA/Drivers/USB/Core/AVR8/../AVR8/../AVR8/Endpoint_AVR8.h **** 				#elif defined(USB_SERIES_2_AVR)
 3335               		.loc 2 295 25 is_stmt 0 view .LVU904
 3336 0044 9091 F300 		lds r25,243
 295:LUFA/LUFA/Drivers/USB/Core/AVR8/../AVR8/../AVR8/Endpoint_AVR8.h **** 				#elif defined(USB_SERIES_2_AVR)
 3337               		.loc 2 295 40 view .LVU905
 3338 0048 8091 F200 		lds r24,242
 3339               	.LBE397:
 3340               	.LBE396:
  54:LUFA/LUFA/Drivers/USB/Core/AVR8/Template/Template_Endpoint_Control_R.c **** 			{
 3341               		.loc 5 54 18 view .LVU906
 3342 004c 892B      		or r24,r25
 3343 004e 01F0      		breq .L225
  56:LUFA/LUFA/Drivers/USB/Core/AVR8/Template/Template_Endpoint_Control_R.c **** 				TEMPLATE_BUFFER_MOVE(DataStream, 1);
 3344               		.loc 5 56 5 is_stmt 1 view .LVU907
 3345               	.LBB398:
 3346               	.LBI398:
 610:LUFA/LUFA/Drivers/USB/Core/AVR8/../AVR8/../AVR8/Endpoint_AVR8.h **** 			{
 3347               		.loc 2 610 26 view .LVU908
 3348               	.LBB399:
 612:LUFA/LUFA/Drivers/USB/Core/AVR8/../AVR8/../AVR8/Endpoint_AVR8.h **** 			}
 3349               		.loc 2 612 5 view .LVU909
 612:LUFA/LUFA/Drivers/USB/Core/AVR8/../AVR8/../AVR8/Endpoint_AVR8.h **** 			}
 3350               		.loc 2 612 12 is_stmt 0 view .LVU910
 3351 0050 8091 F100 		lds r24,241
 3352               	.LBE399:
 3353               	.LBE398:
  56:LUFA/LUFA/Drivers/USB/Core/AVR8/Template/Template_Endpoint_Control_R.c **** 				TEMPLATE_BUFFER_MOVE(DataStream, 1);
 3354               		.loc 5 56 5 view .LVU911
 3355 0054 8083      		st Z,r24
  57:LUFA/LUFA/Drivers/USB/Core/AVR8/Template/Template_Endpoint_Control_R.c **** 				Length--;
 3356               		.loc 5 57 5 is_stmt 1 view .LVU912
 3357 0056 3197      		sbiw r30,1
 3358               	.LVL303:
  58:LUFA/LUFA/Drivers/USB/Core/AVR8/Template/Template_Endpoint_Control_R.c **** 			}
 3359               		.loc 5 58 5 view .LVU913
  58:LUFA/LUFA/Drivers/USB/Core/AVR8/Template/Template_Endpoint_Control_R.c **** 			}
 3360               		.loc 5 58 11 is_stmt 0 view .LVU914
 3361 0058 2150      		subi r18,1
 3362 005a 3109      		sbc r19,__zero_reg__
 3363               	.LVL304:
  54:LUFA/LUFA/Drivers/USB/Core/AVR8/Template/Template_Endpoint_Control_R.c **** 			{
 3364               		.loc 5 54 10 is_stmt 1 view .LVU915
 3365 005c 01F4      		brne .L223
 3366 005e 00C0      		rjmp .L225
 3367               	.L229:
  54:LUFA/LUFA/Drivers/USB/Core/AVR8/Template/Template_Endpoint_Control_R.c **** 			{
 3368               		.loc 5 54 10 is_stmt 0 view .LVU916
 3369               	.LBE402:
 3370               	.LBB403:
  67:LUFA/LUFA/Drivers/USB/Core/AVR8/Template/Template_Endpoint_Control_R.c **** 
 3371               		.loc 5 67 3 is_stmt 1 view .LVU917
  67:LUFA/LUFA/Drivers/USB/Core/AVR8/Template/Template_Endpoint_Control_R.c **** 
 3372               		.loc 5 67 11 is_stmt 0 view .LVU918
 3373 0060 8EB3      		in r24,0x1e
 3374               	.LVL305:
  69:LUFA/LUFA/Drivers/USB/Core/AVR8/Template/Template_Endpoint_Control_R.c **** 		  return ENDPOINT_RWCSTREAM_DeviceDisconnected;
 3375               		.loc 5 69 3 is_stmt 1 view .LVU919
  69:LUFA/LUFA/Drivers/USB/Core/AVR8/Template/Template_Endpoint_Control_R.c **** 		  return ENDPOINT_RWCSTREAM_DeviceDisconnected;
 3376               		.loc 5 69 6 is_stmt 0 view .LVU920
 3377 0062 8823      		tst r24
 3378 0064 01F0      		breq .L233
  71:LUFA/LUFA/Drivers/USB/Core/AVR8/Template/Template_Endpoint_Control_R.c **** 		  return ENDPOINT_RWCSTREAM_BusSuspended;
 3379               		.loc 5 71 8 is_stmt 1 view .LVU921
  71:LUFA/LUFA/Drivers/USB/Core/AVR8/Template/Template_Endpoint_Control_R.c **** 		  return ENDPOINT_RWCSTREAM_BusSuspended;
 3380               		.loc 5 71 11 is_stmt 0 view .LVU922
 3381 0066 8530      		cpi r24,lo8(5)
 3382 0068 01F4      		brne .L228
 3383               	.LVL306:
 3384               	.L234:
  71:LUFA/LUFA/Drivers/USB/Core/AVR8/Template/Template_Endpoint_Control_R.c **** 		  return ENDPOINT_RWCSTREAM_BusSuspended;
 3385               		.loc 5 71 11 view .LVU923
 3386               	.LBE403:
 3387               	.LBB404:
  48:LUFA/LUFA/Drivers/USB/Core/AVR8/Template/Template_Endpoint_Control_R.c **** 		else if (Endpoint_IsSETUPReceived())
 3388               		.loc 5 48 12 view .LVU924
 3389 006a 83E0      		ldi r24,lo8(3)
 3390               	/* epilogue start */
 3391               	.LBE404:
 3392               		.loc 5 76 1 view .LVU925
 3393 006c 0895      		ret
 3394               	.L232:
 3395               	.LBB405:
  50:LUFA/LUFA/Drivers/USB/Core/AVR8/Template/Template_Endpoint_Control_R.c **** 
 3396               		.loc 5 50 12 view .LVU926
 3397 006e 81E0      		ldi r24,lo8(1)
 3398 0070 0895      		ret
 3399               	.L233:
  46:LUFA/LUFA/Drivers/USB/Core/AVR8/Template/Template_Endpoint_Control_R.c **** 		else if (USB_DeviceState_LCL == DEVICE_STATE_Suspended)
 3400               		.loc 5 46 12 view .LVU927
 3401 0072 82E0      		ldi r24,lo8(2)
 3402 0074 0895      		ret
 3403               	.LBE405:
 3404               		.cfi_endproc
 3405               	.LFE96:
 3407               		.section	.text.Endpoint_Write_Control_PStream_LE,"ax",@progbits
 3408               	.global	Endpoint_Write_Control_PStream_LE
 3410               	Endpoint_Write_Control_PStream_LE:
 3411               	.LVL307:
 3412               	.LFB97:
  35:LUFA/LUFA/Drivers/USB/Core/AVR8/Template/Template_Endpoint_Control_W.c **** 	uint8_t* DataStream     = ((uint8_t*)Buffer + TEMPLATE_BUFFER_OFFSET(Length));
 3413               		.loc 4 35 1 is_stmt 1 view -0
 3414               		.cfi_startproc
 3415               	/* prologue: function */
 3416               	/* frame size = 0 */
 3417               	/* stack size = 0 */
 3418               	.L__stack_usage = 0
  35:LUFA/LUFA/Drivers/USB/Core/AVR8/Template/Template_Endpoint_Control_W.c **** 	uint8_t* DataStream     = ((uint8_t*)Buffer + TEMPLATE_BUFFER_OFFSET(Length));
 3419               		.loc 4 35 1 is_stmt 0 view .LVU929
 3420 0000 FC01      		movw r30,r24
 3421 0002 CB01      		movw r24,r22
 3422               	.LVL308:
  36:LUFA/LUFA/Drivers/USB/Core/AVR8/Template/Template_Endpoint_Control_W.c **** 	bool     LastPacketFull = false;
 3423               		.loc 4 36 2 is_stmt 1 view .LVU930
  37:LUFA/LUFA/Drivers/USB/Core/AVR8/Template/Template_Endpoint_Control_W.c **** 
 3424               		.loc 4 37 2 view .LVU931
  39:LUFA/LUFA/Drivers/USB/Core/AVR8/Template/Template_Endpoint_Control_W.c **** 	  Length = USB_ControlRequest.wLength;
 3425               		.loc 4 39 2 view .LVU932
  39:LUFA/LUFA/Drivers/USB/Core/AVR8/Template/Template_Endpoint_Control_W.c **** 	  Length = USB_ControlRequest.wLength;
 3426               		.loc 4 39 33 is_stmt 0 view .LVU933
 3427 0004 2091 0000 		lds r18,USB_ControlRequest+6
 3428 0008 3091 0000 		lds r19,USB_ControlRequest+6+1
  39:LUFA/LUFA/Drivers/USB/Core/AVR8/Template/Template_Endpoint_Control_W.c **** 	  Length = USB_ControlRequest.wLength;
 3429               		.loc 4 39 5 view .LVU934
 3430 000c 2617      		cp r18,r22
 3431 000e 3707      		cpc r19,r23
 3432 0010 00F0      		brlo .L251
  41:LUFA/LUFA/Drivers/USB/Core/AVR8/Template/Template_Endpoint_Control_W.c **** 	  Endpoint_ClearIN();
 3433               		.loc 4 41 7 is_stmt 1 view .LVU935
  41:LUFA/LUFA/Drivers/USB/Core/AVR8/Template/Template_Endpoint_Control_W.c **** 	  Endpoint_ClearIN();
 3434               		.loc 4 41 10 is_stmt 0 view .LVU936
 3435 0012 0097      		sbiw r24,0
 3436 0014 01F4      		brne .L240
  42:LUFA/LUFA/Drivers/USB/Core/AVR8/Template/Template_Endpoint_Control_W.c **** 
 3437               		.loc 4 42 4 is_stmt 1 view .LVU937
 3438               	.LBB406:
 3439               	.LBI406:
 513:LUFA/LUFA/Drivers/USB/Core/AVR8/../AVR8/../AVR8/Endpoint_AVR8.h **** 			{
 3440               		.loc 2 513 23 view .LVU938
 3441               	.LBB407:
 516:LUFA/LUFA/Drivers/USB/Core/AVR8/../AVR8/../AVR8/Endpoint_AVR8.h **** 				#else
 3442               		.loc 2 516 6 view .LVU939
 516:LUFA/LUFA/Drivers/USB/Core/AVR8/../AVR8/../AVR8/Endpoint_AVR8.h **** 				#else
 3443               		.loc 2 516 13 is_stmt 0 view .LVU940
 3444 0016 2091 E800 		lds r18,232
 3445 001a 2E77      		andi r18,lo8(126)
 3446 001c 2093 E800 		sts 232,r18
 3447               	.L240:
 516:LUFA/LUFA/Drivers/USB/Core/AVR8/../AVR8/../AVR8/Endpoint_AVR8.h **** 				#else
 3448               		.loc 2 516 13 view .LVU941
 3449               	.LBE407:
 3450               	.LBE406:
 3451 0020 40E0      		ldi r20,0
 3452               	.LVL309:
 3453               	.L244:
  44:LUFA/LUFA/Drivers/USB/Core/AVR8/Template/Template_Endpoint_Control_W.c **** 	{
 3454               		.loc 4 44 8 is_stmt 1 view .LVU942
 3455 0022 0097      		sbiw r24,0
 3456 0024 01F4      		brne .L249
  44:LUFA/LUFA/Drivers/USB/Core/AVR8/Template/Template_Endpoint_Control_W.c **** 	{
 3457               		.loc 4 44 16 is_stmt 0 discriminator 1 view .LVU943
 3458 0026 4111      		cpse r20,__zero_reg__
 3459 0028 00C0      		rjmp .L249
 3460               	.LVL310:
 3461               	.L262:
  74:LUFA/LUFA/Drivers/USB/Core/AVR8/Template/Template_Endpoint_Control_W.c **** 	{
 3462               		.loc 4 74 8 is_stmt 1 view .LVU944
 3463               	.LBB408:
 3464               	.LBI408:
 477:LUFA/LUFA/Drivers/USB/Core/AVR8/../AVR8/../AVR8/Endpoint_AVR8.h **** 			{
 3465               		.loc 2 477 23 view .LVU945
 3466               	.LBB409:
 479:LUFA/LUFA/Drivers/USB/Core/AVR8/../AVR8/../AVR8/Endpoint_AVR8.h **** 			}
 3467               		.loc 2 479 5 view .LVU946
 479:LUFA/LUFA/Drivers/USB/Core/AVR8/../AVR8/../AVR8/Endpoint_AVR8.h **** 			}
 3468               		.loc 2 479 14 is_stmt 0 view .LVU947
 3469 002a 8091 E800 		lds r24,232
 3470               	.LBE409:
 3471               	.LBE408:
  74:LUFA/LUFA/Drivers/USB/Core/AVR8/Template/Template_Endpoint_Control_W.c **** 	{
 3472               		.loc 4 74 8 view .LVU948
 3473 002e 82FF      		sbrs r24,2
 3474 0030 00C0      		rjmp .L250
  84:LUFA/LUFA/Drivers/USB/Core/AVR8/Template/Template_Endpoint_Control_W.c **** }
 3475               		.loc 4 84 9 view .LVU949
 3476 0032 80E0      		ldi r24,0
 3477 0034 0895      		ret
 3478               	.LVL311:
 3479               	.L251:
  84:LUFA/LUFA/Drivers/USB/Core/AVR8/Template/Template_Endpoint_Control_W.c **** }
 3480               		.loc 4 84 9 view .LVU950
 3481 0036 C901      		movw r24,r18
 3482 0038 00C0      		rjmp .L240
 3483               	.LVL312:
 3484               	.L249:
 3485               	.LBB410:
  46:LUFA/LUFA/Drivers/USB/Core/AVR8/Template/Template_Endpoint_Control_W.c **** 
 3486               		.loc 4 46 3 is_stmt 1 view .LVU951
  46:LUFA/LUFA/Drivers/USB/Core/AVR8/Template/Template_Endpoint_Control_W.c **** 
 3487               		.loc 4 46 11 is_stmt 0 view .LVU952
 3488 003a 2EB3      		in r18,0x1e
 3489               	.LVL313:
  48:LUFA/LUFA/Drivers/USB/Core/AVR8/Template/Template_Endpoint_Control_W.c **** 		  return ENDPOINT_RWCSTREAM_DeviceDisconnected;
 3490               		.loc 4 48 3 is_stmt 1 view .LVU953
  48:LUFA/LUFA/Drivers/USB/Core/AVR8/Template/Template_Endpoint_Control_W.c **** 		  return ENDPOINT_RWCSTREAM_DeviceDisconnected;
 3491               		.loc 4 48 6 is_stmt 0 view .LVU954
 3492 003c 2223      		tst r18
 3493 003e 01F0      		breq .L255
  50:LUFA/LUFA/Drivers/USB/Core/AVR8/Template/Template_Endpoint_Control_W.c **** 		  return ENDPOINT_RWCSTREAM_BusSuspended;
 3494               		.loc 4 50 8 is_stmt 1 view .LVU955
  50:LUFA/LUFA/Drivers/USB/Core/AVR8/Template/Template_Endpoint_Control_W.c **** 		  return ENDPOINT_RWCSTREAM_BusSuspended;
 3495               		.loc 4 50 11 is_stmt 0 view .LVU956
 3496 0040 2530      		cpi r18,lo8(5)
 3497 0042 01F0      		breq .L256
  52:LUFA/LUFA/Drivers/USB/Core/AVR8/Template/Template_Endpoint_Control_W.c **** 		  return ENDPOINT_RWCSTREAM_HostAborted;
 3498               		.loc 4 52 8 is_stmt 1 view .LVU957
 3499               	.LBB411:
 3500               	.LBI411:
 489:LUFA/LUFA/Drivers/USB/Core/AVR8/../AVR8/../AVR8/Endpoint_AVR8.h **** 			{
 3501               		.loc 2 489 23 view .LVU958
 3502               	.LBB412:
 491:LUFA/LUFA/Drivers/USB/Core/AVR8/../AVR8/../AVR8/Endpoint_AVR8.h **** 			}
 3503               		.loc 2 491 5 view .LVU959
 491:LUFA/LUFA/Drivers/USB/Core/AVR8/../AVR8/../AVR8/Endpoint_AVR8.h **** 			}
 3504               		.loc 2 491 14 is_stmt 0 view .LVU960
 3505 0044 2091 E800 		lds r18,232
 3506               	.LVL314:
 491:LUFA/LUFA/Drivers/USB/Core/AVR8/../AVR8/../AVR8/Endpoint_AVR8.h **** 			}
 3507               		.loc 2 491 14 view .LVU961
 3508               	.LBE412:
 3509               	.LBE411:
  52:LUFA/LUFA/Drivers/USB/Core/AVR8/Template/Template_Endpoint_Control_W.c **** 		  return ENDPOINT_RWCSTREAM_HostAborted;
 3510               		.loc 4 52 11 view .LVU962
 3511 0048 23FD      		sbrc r18,3
 3512 004a 00C0      		rjmp .L254
  54:LUFA/LUFA/Drivers/USB/Core/AVR8/Template/Template_Endpoint_Control_W.c **** 		  break;
 3513               		.loc 4 54 8 is_stmt 1 view .LVU963
 3514               	.LBB413:
 3515               	.LBI413:
 477:LUFA/LUFA/Drivers/USB/Core/AVR8/../AVR8/../AVR8/Endpoint_AVR8.h **** 			{
 3516               		.loc 2 477 23 view .LVU964
 3517               	.LBB414:
 479:LUFA/LUFA/Drivers/USB/Core/AVR8/../AVR8/../AVR8/Endpoint_AVR8.h **** 			}
 3518               		.loc 2 479 5 view .LVU965
 479:LUFA/LUFA/Drivers/USB/Core/AVR8/../AVR8/../AVR8/Endpoint_AVR8.h **** 			}
 3519               		.loc 2 479 14 is_stmt 0 view .LVU966
 3520 004c 2091 E800 		lds r18,232
 3521               	.LBE414:
 3522               	.LBE413:
  54:LUFA/LUFA/Drivers/USB/Core/AVR8/Template/Template_Endpoint_Control_W.c **** 		  break;
 3523               		.loc 4 54 11 view .LVU967
 3524 0050 22FD      		sbrc r18,2
 3525 0052 00C0      		rjmp .L262
  57:LUFA/LUFA/Drivers/USB/Core/AVR8/Template/Template_Endpoint_Control_W.c **** 		{
 3526               		.loc 4 57 3 is_stmt 1 view .LVU968
 3527               	.LBB415:
 3528               	.LBI415:
 465:LUFA/LUFA/Drivers/USB/Core/AVR8/../AVR8/../AVR8/Endpoint_AVR8.h **** 			{
 3529               		.loc 2 465 23 view .LVU969
 3530               	.LBB416:
 467:LUFA/LUFA/Drivers/USB/Core/AVR8/../AVR8/../AVR8/Endpoint_AVR8.h **** 			}
 3531               		.loc 2 467 5 view .LVU970
 467:LUFA/LUFA/Drivers/USB/Core/AVR8/../AVR8/../AVR8/Endpoint_AVR8.h **** 			}
 3532               		.loc 2 467 14 is_stmt 0 view .LVU971
 3533 0054 2091 E800 		lds r18,232
 3534               	.LBE416:
 3535               	.LBE415:
  57:LUFA/LUFA/Drivers/USB/Core/AVR8/Template/Template_Endpoint_Control_W.c **** 		{
 3536               		.loc 4 57 6 view .LVU972
 3537 0058 20FF      		sbrs r18,0
 3538 005a 00C0      		rjmp .L244
 3539               	.LBB417:
  59:LUFA/LUFA/Drivers/USB/Core/AVR8/Template/Template_Endpoint_Control_W.c **** 
 3540               		.loc 4 59 4 is_stmt 1 view .LVU973
 3541               	.LBB418:
 3542               	.LBI418:
 290:LUFA/LUFA/Drivers/USB/Core/AVR8/../AVR8/../AVR8/Endpoint_AVR8.h **** 			{
 3543               		.loc 2 290 27 view .LVU974
 3544               	.LBB419:
 295:LUFA/LUFA/Drivers/USB/Core/AVR8/../AVR8/../AVR8/Endpoint_AVR8.h **** 				#elif defined(USB_SERIES_2_AVR)
 3545               		.loc 2 295 6 view .LVU975
 295:LUFA/LUFA/Drivers/USB/Core/AVR8/../AVR8/../AVR8/Endpoint_AVR8.h **** 				#elif defined(USB_SERIES_2_AVR)
 3546               		.loc 2 295 25 is_stmt 0 view .LVU976
 3547 005c 3091 F300 		lds r19,243
 295:LUFA/LUFA/Drivers/USB/Core/AVR8/../AVR8/../AVR8/Endpoint_AVR8.h **** 				#elif defined(USB_SERIES_2_AVR)
 3548               		.loc 2 295 40 view .LVU977
 3549 0060 2091 F200 		lds r18,242
 3550               	.LVL315:
 295:LUFA/LUFA/Drivers/USB/Core/AVR8/../AVR8/../AVR8/Endpoint_AVR8.h **** 				#elif defined(USB_SERIES_2_AVR)
 3551               		.loc 2 295 40 view .LVU978
 3552               	.LBE419:
 3553               	.LBE418:
  61:LUFA/LUFA/Drivers/USB/Core/AVR8/Template/Template_Endpoint_Control_W.c **** 			{
 3554               		.loc 4 61 4 is_stmt 1 view .LVU979
 3555               	.L245:
  61:LUFA/LUFA/Drivers/USB/Core/AVR8/Template/Template_Endpoint_Control_W.c **** 			{
 3556               		.loc 4 61 10 view .LVU980
 3557 0064 0097      		sbiw r24,0
 3558 0066 01F0      		breq .L246
  61:LUFA/LUFA/Drivers/USB/Core/AVR8/Template/Template_Endpoint_Control_W.c **** 			{
 3559               		.loc 4 61 18 is_stmt 0 discriminator 1 view .LVU981
 3560 0068 2830      		cpi r18,8
 3561 006a 3105      		cpc r19,__zero_reg__
 3562 006c 00F0      		brlo .L247
 3563               	.L246:
  69:LUFA/LUFA/Drivers/USB/Core/AVR8/Template/Template_Endpoint_Control_W.c **** 			Endpoint_ClearIN();
 3564               		.loc 4 69 4 is_stmt 1 view .LVU982
  69:LUFA/LUFA/Drivers/USB/Core/AVR8/Template/Template_Endpoint_Control_W.c **** 			Endpoint_ClearIN();
 3565               		.loc 4 69 19 is_stmt 0 view .LVU983
 3566 006e 41E0      		ldi r20,lo8(1)
 3567 0070 2830      		cpi r18,8
 3568 0072 3105      		cpc r19,__zero_reg__
 3569 0074 01F0      		breq .L248
 3570 0076 40E0      		ldi r20,0
 3571               	.L248:
 3572               	.LVL316:
  70:LUFA/LUFA/Drivers/USB/Core/AVR8/Template/Template_Endpoint_Control_W.c **** 		}
 3573               		.loc 4 70 4 is_stmt 1 view .LVU984
 3574               	.LBB420:
 3575               	.LBI420:
 513:LUFA/LUFA/Drivers/USB/Core/AVR8/../AVR8/../AVR8/Endpoint_AVR8.h **** 			{
 3576               		.loc 2 513 23 view .LVU985
 3577               	.LBB421:
 516:LUFA/LUFA/Drivers/USB/Core/AVR8/../AVR8/../AVR8/Endpoint_AVR8.h **** 				#else
 3578               		.loc 2 516 6 view .LVU986
 516:LUFA/LUFA/Drivers/USB/Core/AVR8/../AVR8/../AVR8/Endpoint_AVR8.h **** 				#else
 3579               		.loc 2 516 13 is_stmt 0 view .LVU987
 3580 0078 2091 E800 		lds r18,232
 3581               	.LVL317:
 516:LUFA/LUFA/Drivers/USB/Core/AVR8/../AVR8/../AVR8/Endpoint_AVR8.h **** 				#else
 3582               		.loc 2 516 13 view .LVU988
 3583 007c 2E77      		andi r18,lo8(126)
 3584 007e 2093 E800 		sts 232,r18
 3585               	.LVL318:
 520:LUFA/LUFA/Drivers/USB/Core/AVR8/../AVR8/../AVR8/Endpoint_AVR8.h **** 
 3586               		.loc 2 520 4 view .LVU989
 3587 0082 00C0      		rjmp .L244
 3588               	.LVL319:
 3589               	.L247:
 520:LUFA/LUFA/Drivers/USB/Core/AVR8/../AVR8/../AVR8/Endpoint_AVR8.h **** 
 3590               		.loc 2 520 4 view .LVU990
 3591               	.LBE421:
 3592               	.LBE420:
  63:LUFA/LUFA/Drivers/USB/Core/AVR8/Template/Template_Endpoint_Control_W.c **** 				TEMPLATE_BUFFER_MOVE(DataStream, 1);
 3593               		.loc 4 63 5 is_stmt 1 view .LVU991
 3594               	.LBB422:
  63:LUFA/LUFA/Drivers/USB/Core/AVR8/Template/Template_Endpoint_Control_W.c **** 				TEMPLATE_BUFFER_MOVE(DataStream, 1);
 3595               		.loc 4 63 5 view .LVU992
  63:LUFA/LUFA/Drivers/USB/Core/AVR8/Template/Template_Endpoint_Control_W.c **** 				TEMPLATE_BUFFER_MOVE(DataStream, 1);
 3596               		.loc 4 63 5 view .LVU993
  63:LUFA/LUFA/Drivers/USB/Core/AVR8/Template/Template_Endpoint_Control_W.c **** 				TEMPLATE_BUFFER_MOVE(DataStream, 1);
 3597               		.loc 4 63 5 view .LVU994
 3598               	/* #APP */
 3599               	 ;  63 "LUFA/LUFA/Drivers/USB/Core/AVR8/Template/Template_Endpoint_Control_W.c" 1
 3600 0084 4491      		lpm r20, Z
 3601               		
 3602               	 ;  0 "" 2
 3603               	.LVL320:
  63:LUFA/LUFA/Drivers/USB/Core/AVR8/Template/Template_Endpoint_Control_W.c **** 				TEMPLATE_BUFFER_MOVE(DataStream, 1);
 3604               		.loc 4 63 5 view .LVU995
  63:LUFA/LUFA/Drivers/USB/Core/AVR8/Template/Template_Endpoint_Control_W.c **** 				TEMPLATE_BUFFER_MOVE(DataStream, 1);
 3605               		.loc 4 63 5 is_stmt 0 view .LVU996
 3606               	/* #NOAPP */
 3607               	.LBE422:
 3608               	.LBB423:
 3609               	.LBI423:
 622:LUFA/LUFA/Drivers/USB/Core/AVR8/../AVR8/../AVR8/Endpoint_AVR8.h **** 			{
 3610               		.loc 2 622 23 is_stmt 1 view .LVU997
 3611               	.LBB424:
 624:LUFA/LUFA/Drivers/USB/Core/AVR8/../AVR8/../AVR8/Endpoint_AVR8.h **** 			}
 3612               		.loc 2 624 5 view .LVU998
 624:LUFA/LUFA/Drivers/USB/Core/AVR8/../AVR8/../AVR8/Endpoint_AVR8.h **** 			}
 3613               		.loc 2 624 12 is_stmt 0 view .LVU999
 3614 0086 4093 F100 		sts 241,r20
 3615               	.LVL321:
 624:LUFA/LUFA/Drivers/USB/Core/AVR8/../AVR8/../AVR8/Endpoint_AVR8.h **** 			}
 3616               		.loc 2 624 12 view .LVU1000
 3617               	.LBE424:
 3618               	.LBE423:
  64:LUFA/LUFA/Drivers/USB/Core/AVR8/Template/Template_Endpoint_Control_W.c **** 				Length--;
 3619               		.loc 4 64 5 is_stmt 1 view .LVU1001
 3620 008a 3196      		adiw r30,1
 3621               	.LVL322:
  65:LUFA/LUFA/Drivers/USB/Core/AVR8/Template/Template_Endpoint_Control_W.c **** 				BytesInEndpoint++;
 3622               		.loc 4 65 5 view .LVU1002
  65:LUFA/LUFA/Drivers/USB/Core/AVR8/Template/Template_Endpoint_Control_W.c **** 				BytesInEndpoint++;
 3623               		.loc 4 65 11 is_stmt 0 view .LVU1003
 3624 008c 0197      		sbiw r24,1
 3625               	.LVL323:
  66:LUFA/LUFA/Drivers/USB/Core/AVR8/Template/Template_Endpoint_Control_W.c **** 			}
 3626               		.loc 4 66 5 is_stmt 1 view .LVU1004
  66:LUFA/LUFA/Drivers/USB/Core/AVR8/Template/Template_Endpoint_Control_W.c **** 			}
 3627               		.loc 4 66 20 is_stmt 0 view .LVU1005
 3628 008e 2F5F      		subi r18,-1
 3629 0090 3F4F      		sbci r19,-1
 3630               	.LVL324:
  66:LUFA/LUFA/Drivers/USB/Core/AVR8/Template/Template_Endpoint_Control_W.c **** 			}
 3631               		.loc 4 66 20 view .LVU1006
 3632 0092 00C0      		rjmp .L245
 3633               	.LVL325:
 3634               	.L250:
  66:LUFA/LUFA/Drivers/USB/Core/AVR8/Template/Template_Endpoint_Control_W.c **** 			}
 3635               		.loc 4 66 20 view .LVU1007
 3636               	.LBE417:
 3637               	.LBE410:
 3638               	.LBB425:
  76:LUFA/LUFA/Drivers/USB/Core/AVR8/Template/Template_Endpoint_Control_W.c **** 
 3639               		.loc 4 76 3 is_stmt 1 view .LVU1008
  76:LUFA/LUFA/Drivers/USB/Core/AVR8/Template/Template_Endpoint_Control_W.c **** 
 3640               		.loc 4 76 11 is_stmt 0 view .LVU1009
 3641 0094 8EB3      		in r24,0x1e
 3642               	.LVL326:
  78:LUFA/LUFA/Drivers/USB/Core/AVR8/Template/Template_Endpoint_Control_W.c **** 		  return ENDPOINT_RWCSTREAM_DeviceDisconnected;
 3643               		.loc 4 78 3 is_stmt 1 view .LVU1010
  78:LUFA/LUFA/Drivers/USB/Core/AVR8/Template/Template_Endpoint_Control_W.c **** 		  return ENDPOINT_RWCSTREAM_DeviceDisconnected;
 3644               		.loc 4 78 6 is_stmt 0 view .LVU1011
 3645 0096 8823      		tst r24
 3646 0098 01F0      		breq .L255
  80:LUFA/LUFA/Drivers/USB/Core/AVR8/Template/Template_Endpoint_Control_W.c **** 		  return ENDPOINT_RWCSTREAM_BusSuspended;
 3647               		.loc 4 80 8 is_stmt 1 view .LVU1012
  80:LUFA/LUFA/Drivers/USB/Core/AVR8/Template/Template_Endpoint_Control_W.c **** 		  return ENDPOINT_RWCSTREAM_BusSuspended;
 3648               		.loc 4 80 11 is_stmt 0 view .LVU1013
 3649 009a 8530      		cpi r24,lo8(5)
 3650 009c 01F4      		brne .L262
 3651               	.LVL327:
 3652               	.L256:
  80:LUFA/LUFA/Drivers/USB/Core/AVR8/Template/Template_Endpoint_Control_W.c **** 		  return ENDPOINT_RWCSTREAM_BusSuspended;
 3653               		.loc 4 80 11 view .LVU1014
 3654               	.LBE425:
 3655               	.LBB426:
  51:LUFA/LUFA/Drivers/USB/Core/AVR8/Template/Template_Endpoint_Control_W.c **** 		else if (Endpoint_IsSETUPReceived())
 3656               		.loc 4 51 12 view .LVU1015
 3657 009e 83E0      		ldi r24,lo8(3)
 3658               	/* epilogue start */
 3659               	.LBE426:
 3660               		.loc 4 85 1 view .LVU1016
 3661 00a0 0895      		ret
 3662               	.LVL328:
 3663               	.L254:
 3664               	.LBB427:
  53:LUFA/LUFA/Drivers/USB/Core/AVR8/Template/Template_Endpoint_Control_W.c **** 		else if (Endpoint_IsOUTReceived())
 3665               		.loc 4 53 12 view .LVU1017
 3666 00a2 81E0      		ldi r24,lo8(1)
 3667               	.LVL329:
  53:LUFA/LUFA/Drivers/USB/Core/AVR8/Template/Template_Endpoint_Control_W.c **** 		else if (Endpoint_IsOUTReceived())
 3668               		.loc 4 53 12 view .LVU1018
 3669 00a4 0895      		ret
 3670               	.L255:
  49:LUFA/LUFA/Drivers/USB/Core/AVR8/Template/Template_Endpoint_Control_W.c **** 		else if (USB_DeviceState_LCL == DEVICE_STATE_Suspended)
 3671               		.loc 4 49 12 view .LVU1019
 3672 00a6 82E0      		ldi r24,lo8(2)
 3673 00a8 0895      		ret
 3674               	.LBE427:
 3675               		.cfi_endproc
 3676               	.LFE97:
 3678               		.section	.text.Endpoint_Write_Control_PStream_BE,"ax",@progbits
 3679               	.global	Endpoint_Write_Control_PStream_BE
 3681               	Endpoint_Write_Control_PStream_BE:
 3682               	.LVL330:
 3683               	.LFB98:
  35:LUFA/LUFA/Drivers/USB/Core/AVR8/Template/Template_Endpoint_Control_W.c **** 	uint8_t* DataStream     = ((uint8_t*)Buffer + TEMPLATE_BUFFER_OFFSET(Length));
 3684               		.loc 4 35 1 is_stmt 1 view -0
 3685               		.cfi_startproc
 3686               	/* prologue: function */
 3687               	/* frame size = 0 */
 3688               	/* stack size = 0 */
 3689               	.L__stack_usage = 0
  35:LUFA/LUFA/Drivers/USB/Core/AVR8/Template/Template_Endpoint_Control_W.c **** 	uint8_t* DataStream     = ((uint8_t*)Buffer + TEMPLATE_BUFFER_OFFSET(Length));
 3690               		.loc 4 35 1 is_stmt 0 view .LVU1021
 3691 0000 9B01      		movw r18,r22
  36:LUFA/LUFA/Drivers/USB/Core/AVR8/Template/Template_Endpoint_Control_W.c **** 	bool     LastPacketFull = false;
 3692               		.loc 4 36 2 is_stmt 1 view .LVU1022
  36:LUFA/LUFA/Drivers/USB/Core/AVR8/Template/Template_Endpoint_Control_W.c **** 	bool     LastPacketFull = false;
 3693               		.loc 4 36 46 is_stmt 0 view .LVU1023
 3694 0002 FB01      		movw r30,r22
 3695 0004 3197      		sbiw r30,1
  36:LUFA/LUFA/Drivers/USB/Core/AVR8/Template/Template_Endpoint_Control_W.c **** 	bool     LastPacketFull = false;
 3696               		.loc 4 36 11 view .LVU1024
 3697 0006 E80F      		add r30,r24
 3698 0008 F91F      		adc r31,r25
 3699               	.LVL331:
  37:LUFA/LUFA/Drivers/USB/Core/AVR8/Template/Template_Endpoint_Control_W.c **** 
 3700               		.loc 4 37 2 is_stmt 1 view .LVU1025
  39:LUFA/LUFA/Drivers/USB/Core/AVR8/Template/Template_Endpoint_Control_W.c **** 	  Length = USB_ControlRequest.wLength;
 3701               		.loc 4 39 2 view .LVU1026
  39:LUFA/LUFA/Drivers/USB/Core/AVR8/Template/Template_Endpoint_Control_W.c **** 	  Length = USB_ControlRequest.wLength;
 3702               		.loc 4 39 33 is_stmt 0 view .LVU1027
 3703 000a 8091 0000 		lds r24,USB_ControlRequest+6
 3704 000e 9091 0000 		lds r25,USB_ControlRequest+6+1
 3705               	.LVL332:
  39:LUFA/LUFA/Drivers/USB/Core/AVR8/Template/Template_Endpoint_Control_W.c **** 	  Length = USB_ControlRequest.wLength;
 3706               		.loc 4 39 5 view .LVU1028
 3707 0012 8617      		cp r24,r22
 3708 0014 9707      		cpc r25,r23
 3709 0016 00F0      		brlo .L278
  41:LUFA/LUFA/Drivers/USB/Core/AVR8/Template/Template_Endpoint_Control_W.c **** 	  Endpoint_ClearIN();
 3710               		.loc 4 41 7 is_stmt 1 view .LVU1029
  41:LUFA/LUFA/Drivers/USB/Core/AVR8/Template/Template_Endpoint_Control_W.c **** 	  Endpoint_ClearIN();
 3711               		.loc 4 41 10 is_stmt 0 view .LVU1030
 3712 0018 672B      		or r22,r23
 3713 001a 01F4      		brne .L267
  42:LUFA/LUFA/Drivers/USB/Core/AVR8/Template/Template_Endpoint_Control_W.c **** 
 3714               		.loc 4 42 4 is_stmt 1 view .LVU1031
 3715               	.LBB428:
 3716               	.LBI428:
 513:LUFA/LUFA/Drivers/USB/Core/AVR8/../AVR8/../AVR8/Endpoint_AVR8.h **** 			{
 3717               		.loc 2 513 23 view .LVU1032
 3718               	.LBB429:
 516:LUFA/LUFA/Drivers/USB/Core/AVR8/../AVR8/../AVR8/Endpoint_AVR8.h **** 				#else
 3719               		.loc 2 516 6 view .LVU1033
 516:LUFA/LUFA/Drivers/USB/Core/AVR8/../AVR8/../AVR8/Endpoint_AVR8.h **** 				#else
 3720               		.loc 2 516 13 is_stmt 0 view .LVU1034
 3721 001c 8091 E800 		lds r24,232
 3722 0020 8E77      		andi r24,lo8(126)
 3723 0022 8093 E800 		sts 232,r24
 3724               	.L267:
 516:LUFA/LUFA/Drivers/USB/Core/AVR8/../AVR8/../AVR8/Endpoint_AVR8.h **** 				#else
 3725               		.loc 2 516 13 view .LVU1035
 3726               	.LBE429:
 3727               	.LBE428:
 3728 0026 80E0      		ldi r24,0
 3729               	.LVL333:
 3730               	.L271:
  44:LUFA/LUFA/Drivers/USB/Core/AVR8/Template/Template_Endpoint_Control_W.c **** 	{
 3731               		.loc 4 44 8 is_stmt 1 view .LVU1036
 3732 0028 2115      		cp r18,__zero_reg__
 3733 002a 3105      		cpc r19,__zero_reg__
 3734 002c 01F4      		brne .L276
  44:LUFA/LUFA/Drivers/USB/Core/AVR8/Template/Template_Endpoint_Control_W.c **** 	{
 3735               		.loc 4 44 16 is_stmt 0 discriminator 1 view .LVU1037
 3736 002e 8111      		cpse r24,__zero_reg__
 3737 0030 00C0      		rjmp .L276
 3738               	.LVL334:
 3739               	.L289:
  74:LUFA/LUFA/Drivers/USB/Core/AVR8/Template/Template_Endpoint_Control_W.c **** 	{
 3740               		.loc 4 74 8 is_stmt 1 view .LVU1038
 3741               	.LBB430:
 3742               	.LBI430:
 477:LUFA/LUFA/Drivers/USB/Core/AVR8/../AVR8/../AVR8/Endpoint_AVR8.h **** 			{
 3743               		.loc 2 477 23 view .LVU1039
 3744               	.LBB431:
 479:LUFA/LUFA/Drivers/USB/Core/AVR8/../AVR8/../AVR8/Endpoint_AVR8.h **** 			}
 3745               		.loc 2 479 5 view .LVU1040
 479:LUFA/LUFA/Drivers/USB/Core/AVR8/../AVR8/../AVR8/Endpoint_AVR8.h **** 			}
 3746               		.loc 2 479 14 is_stmt 0 view .LVU1041
 3747 0032 8091 E800 		lds r24,232
 3748               	.LBE431:
 3749               	.LBE430:
  74:LUFA/LUFA/Drivers/USB/Core/AVR8/Template/Template_Endpoint_Control_W.c **** 	{
 3750               		.loc 4 74 8 view .LVU1042
 3751 0036 82FF      		sbrs r24,2
 3752 0038 00C0      		rjmp .L277
  84:LUFA/LUFA/Drivers/USB/Core/AVR8/Template/Template_Endpoint_Control_W.c **** }
 3753               		.loc 4 84 9 view .LVU1043
 3754 003a 80E0      		ldi r24,0
 3755 003c 0895      		ret
 3756               	.LVL335:
 3757               	.L278:
  84:LUFA/LUFA/Drivers/USB/Core/AVR8/Template/Template_Endpoint_Control_W.c **** }
 3758               		.loc 4 84 9 view .LVU1044
 3759 003e 9C01      		movw r18,r24
 3760               	.LVL336:
  84:LUFA/LUFA/Drivers/USB/Core/AVR8/Template/Template_Endpoint_Control_W.c **** }
 3761               		.loc 4 84 9 view .LVU1045
 3762 0040 00C0      		rjmp .L267
 3763               	.LVL337:
 3764               	.L276:
 3765               	.LBB432:
  46:LUFA/LUFA/Drivers/USB/Core/AVR8/Template/Template_Endpoint_Control_W.c **** 
 3766               		.loc 4 46 3 is_stmt 1 view .LVU1046
  46:LUFA/LUFA/Drivers/USB/Core/AVR8/Template/Template_Endpoint_Control_W.c **** 
 3767               		.loc 4 46 11 is_stmt 0 view .LVU1047
 3768 0042 9EB3      		in r25,0x1e
 3769               	.LVL338:
  48:LUFA/LUFA/Drivers/USB/Core/AVR8/Template/Template_Endpoint_Control_W.c **** 		  return ENDPOINT_RWCSTREAM_DeviceDisconnected;
 3770               		.loc 4 48 3 is_stmt 1 view .LVU1048
  48:LUFA/LUFA/Drivers/USB/Core/AVR8/Template/Template_Endpoint_Control_W.c **** 		  return ENDPOINT_RWCSTREAM_DeviceDisconnected;
 3771               		.loc 4 48 6 is_stmt 0 view .LVU1049
 3772 0044 9923      		tst r25
 3773 0046 01F0      		breq .L282
  50:LUFA/LUFA/Drivers/USB/Core/AVR8/Template/Template_Endpoint_Control_W.c **** 		  return ENDPOINT_RWCSTREAM_BusSuspended;
 3774               		.loc 4 50 8 is_stmt 1 view .LVU1050
  50:LUFA/LUFA/Drivers/USB/Core/AVR8/Template/Template_Endpoint_Control_W.c **** 		  return ENDPOINT_RWCSTREAM_BusSuspended;
 3775               		.loc 4 50 11 is_stmt 0 view .LVU1051
 3776 0048 9530      		cpi r25,lo8(5)
 3777 004a 01F0      		breq .L283
  52:LUFA/LUFA/Drivers/USB/Core/AVR8/Template/Template_Endpoint_Control_W.c **** 		  return ENDPOINT_RWCSTREAM_HostAborted;
 3778               		.loc 4 52 8 is_stmt 1 view .LVU1052
 3779               	.LBB433:
 3780               	.LBI433:
 489:LUFA/LUFA/Drivers/USB/Core/AVR8/../AVR8/../AVR8/Endpoint_AVR8.h **** 			{
 3781               		.loc 2 489 23 view .LVU1053
 3782               	.LBB434:
 491:LUFA/LUFA/Drivers/USB/Core/AVR8/../AVR8/../AVR8/Endpoint_AVR8.h **** 			}
 3783               		.loc 2 491 5 view .LVU1054
 491:LUFA/LUFA/Drivers/USB/Core/AVR8/../AVR8/../AVR8/Endpoint_AVR8.h **** 			}
 3784               		.loc 2 491 14 is_stmt 0 view .LVU1055
 3785 004c 9091 E800 		lds r25,232
 3786               	.LVL339:
 491:LUFA/LUFA/Drivers/USB/Core/AVR8/../AVR8/../AVR8/Endpoint_AVR8.h **** 			}
 3787               		.loc 2 491 14 view .LVU1056
 3788               	.LBE434:
 3789               	.LBE433:
  52:LUFA/LUFA/Drivers/USB/Core/AVR8/Template/Template_Endpoint_Control_W.c **** 		  return ENDPOINT_RWCSTREAM_HostAborted;
 3790               		.loc 4 52 11 view .LVU1057
 3791 0050 93FD      		sbrc r25,3
 3792 0052 00C0      		rjmp .L281
  54:LUFA/LUFA/Drivers/USB/Core/AVR8/Template/Template_Endpoint_Control_W.c **** 		  break;
 3793               		.loc 4 54 8 is_stmt 1 view .LVU1058
 3794               	.LBB435:
 3795               	.LBI435:
 477:LUFA/LUFA/Drivers/USB/Core/AVR8/../AVR8/../AVR8/Endpoint_AVR8.h **** 			{
 3796               		.loc 2 477 23 view .LVU1059
 3797               	.LBB436:
 479:LUFA/LUFA/Drivers/USB/Core/AVR8/../AVR8/../AVR8/Endpoint_AVR8.h **** 			}
 3798               		.loc 2 479 5 view .LVU1060
 479:LUFA/LUFA/Drivers/USB/Core/AVR8/../AVR8/../AVR8/Endpoint_AVR8.h **** 			}
 3799               		.loc 2 479 14 is_stmt 0 view .LVU1061
 3800 0054 9091 E800 		lds r25,232
 3801               	.LBE436:
 3802               	.LBE435:
  54:LUFA/LUFA/Drivers/USB/Core/AVR8/Template/Template_Endpoint_Control_W.c **** 		  break;
 3803               		.loc 4 54 11 view .LVU1062
 3804 0058 92FD      		sbrc r25,2
 3805 005a 00C0      		rjmp .L289
  57:LUFA/LUFA/Drivers/USB/Core/AVR8/Template/Template_Endpoint_Control_W.c **** 		{
 3806               		.loc 4 57 3 is_stmt 1 view .LVU1063
 3807               	.LBB437:
 3808               	.LBI437:
 465:LUFA/LUFA/Drivers/USB/Core/AVR8/../AVR8/../AVR8/Endpoint_AVR8.h **** 			{
 3809               		.loc 2 465 23 view .LVU1064
 3810               	.LBB438:
 467:LUFA/LUFA/Drivers/USB/Core/AVR8/../AVR8/../AVR8/Endpoint_AVR8.h **** 			}
 3811               		.loc 2 467 5 view .LVU1065
 467:LUFA/LUFA/Drivers/USB/Core/AVR8/../AVR8/../AVR8/Endpoint_AVR8.h **** 			}
 3812               		.loc 2 467 14 is_stmt 0 view .LVU1066
 3813 005c 9091 E800 		lds r25,232
 3814               	.LBE438:
 3815               	.LBE437:
  57:LUFA/LUFA/Drivers/USB/Core/AVR8/Template/Template_Endpoint_Control_W.c **** 		{
 3816               		.loc 4 57 6 view .LVU1067
 3817 0060 90FF      		sbrs r25,0
 3818 0062 00C0      		rjmp .L271
 3819               	.LBB439:
  59:LUFA/LUFA/Drivers/USB/Core/AVR8/Template/Template_Endpoint_Control_W.c **** 
 3820               		.loc 4 59 4 is_stmt 1 view .LVU1068
 3821               	.LBB440:
 3822               	.LBI440:
 290:LUFA/LUFA/Drivers/USB/Core/AVR8/../AVR8/../AVR8/Endpoint_AVR8.h **** 			{
 3823               		.loc 2 290 27 view .LVU1069
 3824               	.LBB441:
 295:LUFA/LUFA/Drivers/USB/Core/AVR8/../AVR8/../AVR8/Endpoint_AVR8.h **** 				#elif defined(USB_SERIES_2_AVR)
 3825               		.loc 2 295 6 view .LVU1070
 295:LUFA/LUFA/Drivers/USB/Core/AVR8/../AVR8/../AVR8/Endpoint_AVR8.h **** 				#elif defined(USB_SERIES_2_AVR)
 3826               		.loc 2 295 25 is_stmt 0 view .LVU1071
 3827 0064 8091 F300 		lds r24,243
 3828               	.LVL340:
 295:LUFA/LUFA/Drivers/USB/Core/AVR8/../AVR8/../AVR8/Endpoint_AVR8.h **** 				#elif defined(USB_SERIES_2_AVR)
 3829               		.loc 2 295 40 view .LVU1072
 3830 0068 4091 F200 		lds r20,242
 295:LUFA/LUFA/Drivers/USB/Core/AVR8/../AVR8/../AVR8/Endpoint_AVR8.h **** 				#elif defined(USB_SERIES_2_AVR)
 3831               		.loc 2 295 38 view .LVU1073
 3832 006c 582F      		mov r21,r24
 3833               	.LVL341:
 295:LUFA/LUFA/Drivers/USB/Core/AVR8/../AVR8/../AVR8/Endpoint_AVR8.h **** 				#elif defined(USB_SERIES_2_AVR)
 3834               		.loc 2 295 38 view .LVU1074
 3835               	.LBE441:
 3836               	.LBE440:
  61:LUFA/LUFA/Drivers/USB/Core/AVR8/Template/Template_Endpoint_Control_W.c **** 			{
 3837               		.loc 4 61 4 is_stmt 1 view .LVU1075
 3838               	.L272:
  61:LUFA/LUFA/Drivers/USB/Core/AVR8/Template/Template_Endpoint_Control_W.c **** 			{
 3839               		.loc 4 61 10 view .LVU1076
 3840 006e 2115      		cp r18,__zero_reg__
 3841 0070 3105      		cpc r19,__zero_reg__
 3842 0072 01F0      		breq .L273
  61:LUFA/LUFA/Drivers/USB/Core/AVR8/Template/Template_Endpoint_Control_W.c **** 			{
 3843               		.loc 4 61 18 is_stmt 0 discriminator 1 view .LVU1077
 3844 0074 4830      		cpi r20,8
 3845 0076 5105      		cpc r21,__zero_reg__
 3846 0078 00F0      		brlo .L274
 3847               	.L273:
  69:LUFA/LUFA/Drivers/USB/Core/AVR8/Template/Template_Endpoint_Control_W.c **** 			Endpoint_ClearIN();
 3848               		.loc 4 69 4 is_stmt 1 view .LVU1078
  69:LUFA/LUFA/Drivers/USB/Core/AVR8/Template/Template_Endpoint_Control_W.c **** 			Endpoint_ClearIN();
 3849               		.loc 4 69 19 is_stmt 0 view .LVU1079
 3850 007a 81E0      		ldi r24,lo8(1)
 3851 007c 4830      		cpi r20,8
 3852 007e 5105      		cpc r21,__zero_reg__
 3853 0080 01F0      		breq .L275
 3854 0082 80E0      		ldi r24,0
 3855               	.L275:
 3856               	.LVL342:
  70:LUFA/LUFA/Drivers/USB/Core/AVR8/Template/Template_Endpoint_Control_W.c **** 		}
 3857               		.loc 4 70 4 is_stmt 1 view .LVU1080
 3858               	.LBB442:
 3859               	.LBI442:
 513:LUFA/LUFA/Drivers/USB/Core/AVR8/../AVR8/../AVR8/Endpoint_AVR8.h **** 			{
 3860               		.loc 2 513 23 view .LVU1081
 3861               	.LBB443:
 516:LUFA/LUFA/Drivers/USB/Core/AVR8/../AVR8/../AVR8/Endpoint_AVR8.h **** 				#else
 3862               		.loc 2 516 6 view .LVU1082
 516:LUFA/LUFA/Drivers/USB/Core/AVR8/../AVR8/../AVR8/Endpoint_AVR8.h **** 				#else
 3863               		.loc 2 516 13 is_stmt 0 view .LVU1083
 3864 0084 9091 E800 		lds r25,232
 3865 0088 9E77      		andi r25,lo8(126)
 3866 008a 9093 E800 		sts 232,r25
 3867               	.LVL343:
 520:LUFA/LUFA/Drivers/USB/Core/AVR8/../AVR8/../AVR8/Endpoint_AVR8.h **** 
 3868               		.loc 2 520 4 view .LVU1084
 3869 008e 00C0      		rjmp .L271
 3870               	.LVL344:
 3871               	.L274:
 520:LUFA/LUFA/Drivers/USB/Core/AVR8/../AVR8/../AVR8/Endpoint_AVR8.h **** 
 3872               		.loc 2 520 4 view .LVU1085
 3873               	.LBE443:
 3874               	.LBE442:
  63:LUFA/LUFA/Drivers/USB/Core/AVR8/Template/Template_Endpoint_Control_W.c **** 				TEMPLATE_BUFFER_MOVE(DataStream, 1);
 3875               		.loc 4 63 5 is_stmt 1 view .LVU1086
 3876               	.LBB444:
  63:LUFA/LUFA/Drivers/USB/Core/AVR8/Template/Template_Endpoint_Control_W.c **** 				TEMPLATE_BUFFER_MOVE(DataStream, 1);
 3877               		.loc 4 63 5 view .LVU1087
  63:LUFA/LUFA/Drivers/USB/Core/AVR8/Template/Template_Endpoint_Control_W.c **** 				TEMPLATE_BUFFER_MOVE(DataStream, 1);
 3878               		.loc 4 63 5 view .LVU1088
  63:LUFA/LUFA/Drivers/USB/Core/AVR8/Template/Template_Endpoint_Control_W.c **** 				TEMPLATE_BUFFER_MOVE(DataStream, 1);
 3879               		.loc 4 63 5 view .LVU1089
 3880               	/* #APP */
 3881               	 ;  63 "LUFA/LUFA/Drivers/USB/Core/AVR8/Template/Template_Endpoint_Control_W.c" 1
 3882 0090 8491      		lpm r24, Z
 3883               		
 3884               	 ;  0 "" 2
 3885               	.LVL345:
  63:LUFA/LUFA/Drivers/USB/Core/AVR8/Template/Template_Endpoint_Control_W.c **** 				TEMPLATE_BUFFER_MOVE(DataStream, 1);
 3886               		.loc 4 63 5 view .LVU1090
  63:LUFA/LUFA/Drivers/USB/Core/AVR8/Template/Template_Endpoint_Control_W.c **** 				TEMPLATE_BUFFER_MOVE(DataStream, 1);
 3887               		.loc 4 63 5 is_stmt 0 view .LVU1091
 3888               	/* #NOAPP */
 3889               	.LBE444:
 3890               	.LBB445:
 3891               	.LBI445:
 622:LUFA/LUFA/Drivers/USB/Core/AVR8/../AVR8/../AVR8/Endpoint_AVR8.h **** 			{
 3892               		.loc 2 622 23 is_stmt 1 view .LVU1092
 3893               	.LBB446:
 624:LUFA/LUFA/Drivers/USB/Core/AVR8/../AVR8/../AVR8/Endpoint_AVR8.h **** 			}
 3894               		.loc 2 624 5 view .LVU1093
 624:LUFA/LUFA/Drivers/USB/Core/AVR8/../AVR8/../AVR8/Endpoint_AVR8.h **** 			}
 3895               		.loc 2 624 12 is_stmt 0 view .LVU1094
 3896 0092 8093 F100 		sts 241,r24
 3897               	.LVL346:
 624:LUFA/LUFA/Drivers/USB/Core/AVR8/../AVR8/../AVR8/Endpoint_AVR8.h **** 			}
 3898               		.loc 2 624 12 view .LVU1095
 3899               	.LBE446:
 3900               	.LBE445:
  64:LUFA/LUFA/Drivers/USB/Core/AVR8/Template/Template_Endpoint_Control_W.c **** 				Length--;
 3901               		.loc 4 64 5 is_stmt 1 view .LVU1096
 3902 0096 3197      		sbiw r30,1
 3903               	.LVL347:
  65:LUFA/LUFA/Drivers/USB/Core/AVR8/Template/Template_Endpoint_Control_W.c **** 				BytesInEndpoint++;
 3904               		.loc 4 65 5 view .LVU1097
  65:LUFA/LUFA/Drivers/USB/Core/AVR8/Template/Template_Endpoint_Control_W.c **** 				BytesInEndpoint++;
 3905               		.loc 4 65 11 is_stmt 0 view .LVU1098
 3906 0098 2150      		subi r18,1
 3907 009a 3109      		sbc r19,__zero_reg__
 3908               	.LVL348:
  66:LUFA/LUFA/Drivers/USB/Core/AVR8/Template/Template_Endpoint_Control_W.c **** 			}
 3909               		.loc 4 66 5 is_stmt 1 view .LVU1099
  66:LUFA/LUFA/Drivers/USB/Core/AVR8/Template/Template_Endpoint_Control_W.c **** 			}
 3910               		.loc 4 66 20 is_stmt 0 view .LVU1100
 3911 009c 4F5F      		subi r20,-1
 3912 009e 5F4F      		sbci r21,-1
 3913               	.LVL349:
  66:LUFA/LUFA/Drivers/USB/Core/AVR8/Template/Template_Endpoint_Control_W.c **** 			}
 3914               		.loc 4 66 20 view .LVU1101
 3915 00a0 00C0      		rjmp .L272
 3916               	.LVL350:
 3917               	.L277:
  66:LUFA/LUFA/Drivers/USB/Core/AVR8/Template/Template_Endpoint_Control_W.c **** 			}
 3918               		.loc 4 66 20 view .LVU1102
 3919               	.LBE439:
 3920               	.LBE432:
 3921               	.LBB447:
  76:LUFA/LUFA/Drivers/USB/Core/AVR8/Template/Template_Endpoint_Control_W.c **** 
 3922               		.loc 4 76 3 is_stmt 1 view .LVU1103
  76:LUFA/LUFA/Drivers/USB/Core/AVR8/Template/Template_Endpoint_Control_W.c **** 
 3923               		.loc 4 76 11 is_stmt 0 view .LVU1104
 3924 00a2 8EB3      		in r24,0x1e
 3925               	.LVL351:
  78:LUFA/LUFA/Drivers/USB/Core/AVR8/Template/Template_Endpoint_Control_W.c **** 		  return ENDPOINT_RWCSTREAM_DeviceDisconnected;
 3926               		.loc 4 78 3 is_stmt 1 view .LVU1105
  78:LUFA/LUFA/Drivers/USB/Core/AVR8/Template/Template_Endpoint_Control_W.c **** 		  return ENDPOINT_RWCSTREAM_DeviceDisconnected;
 3927               		.loc 4 78 6 is_stmt 0 view .LVU1106
 3928 00a4 8823      		tst r24
 3929 00a6 01F0      		breq .L282
  80:LUFA/LUFA/Drivers/USB/Core/AVR8/Template/Template_Endpoint_Control_W.c **** 		  return ENDPOINT_RWCSTREAM_BusSuspended;
 3930               		.loc 4 80 8 is_stmt 1 view .LVU1107
  80:LUFA/LUFA/Drivers/USB/Core/AVR8/Template/Template_Endpoint_Control_W.c **** 		  return ENDPOINT_RWCSTREAM_BusSuspended;
 3931               		.loc 4 80 11 is_stmt 0 view .LVU1108
 3932 00a8 8530      		cpi r24,lo8(5)
 3933 00aa 01F0      		breq .+2
 3934 00ac 00C0      		rjmp .L289
 3935               	.LVL352:
 3936               	.L283:
  80:LUFA/LUFA/Drivers/USB/Core/AVR8/Template/Template_Endpoint_Control_W.c **** 		  return ENDPOINT_RWCSTREAM_BusSuspended;
 3937               		.loc 4 80 11 view .LVU1109
 3938               	.LBE447:
 3939               	.LBB448:
  51:LUFA/LUFA/Drivers/USB/Core/AVR8/Template/Template_Endpoint_Control_W.c **** 		else if (Endpoint_IsSETUPReceived())
 3940               		.loc 4 51 12 view .LVU1110
 3941 00ae 83E0      		ldi r24,lo8(3)
 3942               	/* epilogue start */
 3943               	.LBE448:
 3944               		.loc 4 85 1 view .LVU1111
 3945 00b0 0895      		ret
 3946               	.LVL353:
 3947               	.L281:
 3948               	.LBB449:
  53:LUFA/LUFA/Drivers/USB/Core/AVR8/Template/Template_Endpoint_Control_W.c **** 		else if (Endpoint_IsOUTReceived())
 3949               		.loc 4 53 12 view .LVU1112
 3950 00b2 81E0      		ldi r24,lo8(1)
 3951               	.LVL354:
  53:LUFA/LUFA/Drivers/USB/Core/AVR8/Template/Template_Endpoint_Control_W.c **** 		else if (Endpoint_IsOUTReceived())
 3952               		.loc 4 53 12 view .LVU1113
 3953 00b4 0895      		ret
 3954               	.L282:
  49:LUFA/LUFA/Drivers/USB/Core/AVR8/Template/Template_Endpoint_Control_W.c **** 		else if (USB_DeviceState_LCL == DEVICE_STATE_Suspended)
 3955               		.loc 4 49 12 view .LVU1114
 3956 00b6 82E0      		ldi r24,lo8(2)
 3957 00b8 0895      		ret
 3958               	.LBE449:
 3959               		.cfi_endproc
 3960               	.LFE98:
 3962               		.section	.text.Endpoint_Write_Control_EStream_LE,"ax",@progbits
 3963               	.global	Endpoint_Write_Control_EStream_LE
 3965               	Endpoint_Write_Control_EStream_LE:
 3966               	.LVL355:
 3967               	.LFB99:
  35:LUFA/LUFA/Drivers/USB/Core/AVR8/Template/Template_Endpoint_Control_W.c **** 	uint8_t* DataStream     = ((uint8_t*)Buffer + TEMPLATE_BUFFER_OFFSET(Length));
 3968               		.loc 4 35 1 is_stmt 1 view -0
 3969               		.cfi_startproc
  35:LUFA/LUFA/Drivers/USB/Core/AVR8/Template/Template_Endpoint_Control_W.c **** 	uint8_t* DataStream     = ((uint8_t*)Buffer + TEMPLATE_BUFFER_OFFSET(Length));
 3970               		.loc 4 35 1 is_stmt 0 view .LVU1116
 3971 0000 EF92      		push r14
 3972               	.LCFI104:
 3973               		.cfi_def_cfa_offset 3
 3974               		.cfi_offset 14, -2
 3975 0002 FF92      		push r15
 3976               	.LCFI105:
 3977               		.cfi_def_cfa_offset 4
 3978               		.cfi_offset 15, -3
 3979 0004 0F93      		push r16
 3980               	.LCFI106:
 3981               		.cfi_def_cfa_offset 5
 3982               		.cfi_offset 16, -4
 3983 0006 1F93      		push r17
 3984               	.LCFI107:
 3985               		.cfi_def_cfa_offset 6
 3986               		.cfi_offset 17, -5
 3987 0008 CF93      		push r28
 3988               	.LCFI108:
 3989               		.cfi_def_cfa_offset 7
 3990               		.cfi_offset 28, -6
 3991 000a DF93      		push r29
 3992               	.LCFI109:
 3993               		.cfi_def_cfa_offset 8
 3994               		.cfi_offset 29, -7
 3995               	/* prologue: function */
 3996               	/* frame size = 0 */
 3997               	/* stack size = 6 */
 3998               	.L__stack_usage = 6
 3999 000c 7C01      		movw r14,r24
 4000 000e EB01      		movw r28,r22
  36:LUFA/LUFA/Drivers/USB/Core/AVR8/Template/Template_Endpoint_Control_W.c **** 	bool     LastPacketFull = false;
 4001               		.loc 4 36 2 is_stmt 1 view .LVU1117
 4002               	.LVL356:
  37:LUFA/LUFA/Drivers/USB/Core/AVR8/Template/Template_Endpoint_Control_W.c **** 
 4003               		.loc 4 37 2 view .LVU1118
  39:LUFA/LUFA/Drivers/USB/Core/AVR8/Template/Template_Endpoint_Control_W.c **** 	  Length = USB_ControlRequest.wLength;
 4004               		.loc 4 39 2 view .LVU1119
  39:LUFA/LUFA/Drivers/USB/Core/AVR8/Template/Template_Endpoint_Control_W.c **** 	  Length = USB_ControlRequest.wLength;
 4005               		.loc 4 39 33 is_stmt 0 view .LVU1120
 4006 0010 8091 0000 		lds r24,USB_ControlRequest+6
 4007 0014 9091 0000 		lds r25,USB_ControlRequest+6+1
 4008               	.LVL357:
  39:LUFA/LUFA/Drivers/USB/Core/AVR8/Template/Template_Endpoint_Control_W.c **** 	  Length = USB_ControlRequest.wLength;
 4009               		.loc 4 39 5 view .LVU1121
 4010 0018 8617      		cp r24,r22
 4011 001a 9707      		cpc r25,r23
 4012 001c 00F0      		brlo .L305
  41:LUFA/LUFA/Drivers/USB/Core/AVR8/Template/Template_Endpoint_Control_W.c **** 	  Endpoint_ClearIN();
 4013               		.loc 4 41 7 is_stmt 1 view .LVU1122
  41:LUFA/LUFA/Drivers/USB/Core/AVR8/Template/Template_Endpoint_Control_W.c **** 	  Endpoint_ClearIN();
 4014               		.loc 4 41 10 is_stmt 0 view .LVU1123
 4015 001e 2097      		sbiw r28,0
 4016 0020 01F4      		brne .L294
  42:LUFA/LUFA/Drivers/USB/Core/AVR8/Template/Template_Endpoint_Control_W.c **** 
 4017               		.loc 4 42 4 is_stmt 1 view .LVU1124
 4018               	.LBB450:
 4019               	.LBI450:
 513:LUFA/LUFA/Drivers/USB/Core/AVR8/../AVR8/../AVR8/Endpoint_AVR8.h **** 			{
 4020               		.loc 2 513 23 view .LVU1125
 4021               	.LBB451:
 516:LUFA/LUFA/Drivers/USB/Core/AVR8/../AVR8/../AVR8/Endpoint_AVR8.h **** 				#else
 4022               		.loc 2 516 6 view .LVU1126
 516:LUFA/LUFA/Drivers/USB/Core/AVR8/../AVR8/../AVR8/Endpoint_AVR8.h **** 				#else
 4023               		.loc 2 516 13 is_stmt 0 view .LVU1127
 4024 0022 8091 E800 		lds r24,232
 4025 0026 8E77      		andi r24,lo8(126)
 4026 0028 8093 E800 		sts 232,r24
 4027               	.L294:
 516:LUFA/LUFA/Drivers/USB/Core/AVR8/../AVR8/../AVR8/Endpoint_AVR8.h **** 				#else
 4028               		.loc 2 516 13 view .LVU1128
 4029               	.LBE451:
 4030               	.LBE450:
 4031 002c 80E0      		ldi r24,0
 4032               	.LVL358:
 4033               	.L298:
  44:LUFA/LUFA/Drivers/USB/Core/AVR8/Template/Template_Endpoint_Control_W.c **** 	{
 4034               		.loc 4 44 8 is_stmt 1 view .LVU1129
 4035 002e 2097      		sbiw r28,0
 4036 0030 01F4      		brne .L303
  44:LUFA/LUFA/Drivers/USB/Core/AVR8/Template/Template_Endpoint_Control_W.c **** 	{
 4037               		.loc 4 44 16 is_stmt 0 discriminator 1 view .LVU1130
 4038 0032 8111      		cpse r24,__zero_reg__
 4039 0034 00C0      		rjmp .L303
 4040               	.LVL359:
 4041               	.L316:
  74:LUFA/LUFA/Drivers/USB/Core/AVR8/Template/Template_Endpoint_Control_W.c **** 	{
 4042               		.loc 4 74 8 is_stmt 1 view .LVU1131
 4043               	.LBB452:
 4044               	.LBI452:
 477:LUFA/LUFA/Drivers/USB/Core/AVR8/../AVR8/../AVR8/Endpoint_AVR8.h **** 			{
 4045               		.loc 2 477 23 view .LVU1132
 4046               	.LBB453:
 479:LUFA/LUFA/Drivers/USB/Core/AVR8/../AVR8/../AVR8/Endpoint_AVR8.h **** 			}
 4047               		.loc 2 479 5 view .LVU1133
 479:LUFA/LUFA/Drivers/USB/Core/AVR8/../AVR8/../AVR8/Endpoint_AVR8.h **** 			}
 4048               		.loc 2 479 14 is_stmt 0 view .LVU1134
 4049 0036 8091 E800 		lds r24,232
 4050               	.LBE453:
 4051               	.LBE452:
  74:LUFA/LUFA/Drivers/USB/Core/AVR8/Template/Template_Endpoint_Control_W.c **** 	{
 4052               		.loc 4 74 8 view .LVU1135
 4053 003a 82FF      		sbrs r24,2
 4054 003c 00C0      		rjmp .L304
  84:LUFA/LUFA/Drivers/USB/Core/AVR8/Template/Template_Endpoint_Control_W.c **** }
 4055               		.loc 4 84 9 view .LVU1136
 4056 003e 80E0      		ldi r24,0
 4057               	.L293:
 4058               	/* epilogue start */
 4059               		.loc 4 85 1 view .LVU1137
 4060 0040 DF91      		pop r29
 4061 0042 CF91      		pop r28
 4062               	.LVL360:
 4063               		.loc 4 85 1 view .LVU1138
 4064 0044 1F91      		pop r17
 4065 0046 0F91      		pop r16
 4066 0048 FF90      		pop r15
 4067 004a EF90      		pop r14
 4068               	.LVL361:
 4069               		.loc 4 85 1 view .LVU1139
 4070 004c 0895      		ret
 4071               	.LVL362:
 4072               	.L305:
 4073               		.loc 4 85 1 view .LVU1140
 4074 004e EC01      		movw r28,r24
 4075 0050 00C0      		rjmp .L294
 4076               	.LVL363:
 4077               	.L303:
 4078               	.LBB454:
  46:LUFA/LUFA/Drivers/USB/Core/AVR8/Template/Template_Endpoint_Control_W.c **** 
 4079               		.loc 4 46 3 is_stmt 1 view .LVU1141
  46:LUFA/LUFA/Drivers/USB/Core/AVR8/Template/Template_Endpoint_Control_W.c **** 
 4080               		.loc 4 46 11 is_stmt 0 view .LVU1142
 4081 0052 9EB3      		in r25,0x1e
 4082               	.LVL364:
  48:LUFA/LUFA/Drivers/USB/Core/AVR8/Template/Template_Endpoint_Control_W.c **** 		  return ENDPOINT_RWCSTREAM_DeviceDisconnected;
 4083               		.loc 4 48 3 is_stmt 1 view .LVU1143
  48:LUFA/LUFA/Drivers/USB/Core/AVR8/Template/Template_Endpoint_Control_W.c **** 		  return ENDPOINT_RWCSTREAM_DeviceDisconnected;
 4084               		.loc 4 48 6 is_stmt 0 view .LVU1144
 4085 0054 9923      		tst r25
 4086 0056 01F0      		breq .L309
  50:LUFA/LUFA/Drivers/USB/Core/AVR8/Template/Template_Endpoint_Control_W.c **** 		  return ENDPOINT_RWCSTREAM_BusSuspended;
 4087               		.loc 4 50 8 is_stmt 1 view .LVU1145
  50:LUFA/LUFA/Drivers/USB/Core/AVR8/Template/Template_Endpoint_Control_W.c **** 		  return ENDPOINT_RWCSTREAM_BusSuspended;
 4088               		.loc 4 50 11 is_stmt 0 view .LVU1146
 4089 0058 9530      		cpi r25,lo8(5)
 4090 005a 01F0      		breq .L310
  52:LUFA/LUFA/Drivers/USB/Core/AVR8/Template/Template_Endpoint_Control_W.c **** 		  return ENDPOINT_RWCSTREAM_HostAborted;
 4091               		.loc 4 52 8 is_stmt 1 view .LVU1147
 4092               	.LBB455:
 4093               	.LBI455:
 489:LUFA/LUFA/Drivers/USB/Core/AVR8/../AVR8/../AVR8/Endpoint_AVR8.h **** 			{
 4094               		.loc 2 489 23 view .LVU1148
 4095               	.LBB456:
 491:LUFA/LUFA/Drivers/USB/Core/AVR8/../AVR8/../AVR8/Endpoint_AVR8.h **** 			}
 4096               		.loc 2 491 5 view .LVU1149
 491:LUFA/LUFA/Drivers/USB/Core/AVR8/../AVR8/../AVR8/Endpoint_AVR8.h **** 			}
 4097               		.loc 2 491 14 is_stmt 0 view .LVU1150
 4098 005c 9091 E800 		lds r25,232
 4099               	.LVL365:
 491:LUFA/LUFA/Drivers/USB/Core/AVR8/../AVR8/../AVR8/Endpoint_AVR8.h **** 			}
 4100               		.loc 2 491 14 view .LVU1151
 4101               	.LBE456:
 4102               	.LBE455:
  52:LUFA/LUFA/Drivers/USB/Core/AVR8/Template/Template_Endpoint_Control_W.c **** 		  return ENDPOINT_RWCSTREAM_HostAborted;
 4103               		.loc 4 52 11 view .LVU1152
 4104 0060 93FD      		sbrc r25,3
 4105 0062 00C0      		rjmp .L308
  54:LUFA/LUFA/Drivers/USB/Core/AVR8/Template/Template_Endpoint_Control_W.c **** 		  break;
 4106               		.loc 4 54 8 is_stmt 1 view .LVU1153
 4107               	.LBB457:
 4108               	.LBI457:
 477:LUFA/LUFA/Drivers/USB/Core/AVR8/../AVR8/../AVR8/Endpoint_AVR8.h **** 			{
 4109               		.loc 2 477 23 view .LVU1154
 4110               	.LBB458:
 479:LUFA/LUFA/Drivers/USB/Core/AVR8/../AVR8/../AVR8/Endpoint_AVR8.h **** 			}
 4111               		.loc 2 479 5 view .LVU1155
 479:LUFA/LUFA/Drivers/USB/Core/AVR8/../AVR8/../AVR8/Endpoint_AVR8.h **** 			}
 4112               		.loc 2 479 14 is_stmt 0 view .LVU1156
 4113 0064 9091 E800 		lds r25,232
 4114               	.LBE458:
 4115               	.LBE457:
  54:LUFA/LUFA/Drivers/USB/Core/AVR8/Template/Template_Endpoint_Control_W.c **** 		  break;
 4116               		.loc 4 54 11 view .LVU1157
 4117 0068 92FD      		sbrc r25,2
 4118 006a 00C0      		rjmp .L316
  57:LUFA/LUFA/Drivers/USB/Core/AVR8/Template/Template_Endpoint_Control_W.c **** 		{
 4119               		.loc 4 57 3 is_stmt 1 view .LVU1158
 4120               	.LBB459:
 4121               	.LBI459:
 465:LUFA/LUFA/Drivers/USB/Core/AVR8/../AVR8/../AVR8/Endpoint_AVR8.h **** 			{
 4122               		.loc 2 465 23 view .LVU1159
 4123               	.LBB460:
 467:LUFA/LUFA/Drivers/USB/Core/AVR8/../AVR8/../AVR8/Endpoint_AVR8.h **** 			}
 4124               		.loc 2 467 5 view .LVU1160
 467:LUFA/LUFA/Drivers/USB/Core/AVR8/../AVR8/../AVR8/Endpoint_AVR8.h **** 			}
 4125               		.loc 2 467 14 is_stmt 0 view .LVU1161
 4126 006c 9091 E800 		lds r25,232
 4127               	.LBE460:
 4128               	.LBE459:
  57:LUFA/LUFA/Drivers/USB/Core/AVR8/Template/Template_Endpoint_Control_W.c **** 		{
 4129               		.loc 4 57 6 view .LVU1162
 4130 0070 90FF      		sbrs r25,0
 4131 0072 00C0      		rjmp .L298
 4132               	.LBB461:
  59:LUFA/LUFA/Drivers/USB/Core/AVR8/Template/Template_Endpoint_Control_W.c **** 
 4133               		.loc 4 59 4 is_stmt 1 view .LVU1163
 4134               	.LBB462:
 4135               	.LBI462:
 290:LUFA/LUFA/Drivers/USB/Core/AVR8/../AVR8/../AVR8/Endpoint_AVR8.h **** 			{
 4136               		.loc 2 290 27 view .LVU1164
 4137               	.LBB463:
 295:LUFA/LUFA/Drivers/USB/Core/AVR8/../AVR8/../AVR8/Endpoint_AVR8.h **** 				#elif defined(USB_SERIES_2_AVR)
 4138               		.loc 2 295 6 view .LVU1165
 295:LUFA/LUFA/Drivers/USB/Core/AVR8/../AVR8/../AVR8/Endpoint_AVR8.h **** 				#elif defined(USB_SERIES_2_AVR)
 4139               		.loc 2 295 25 is_stmt 0 view .LVU1166
 4140 0074 8091 F300 		lds r24,243
 4141               	.LVL366:
 295:LUFA/LUFA/Drivers/USB/Core/AVR8/../AVR8/../AVR8/Endpoint_AVR8.h **** 				#elif defined(USB_SERIES_2_AVR)
 4142               		.loc 2 295 40 view .LVU1167
 4143 0078 0091 F200 		lds r16,242
 295:LUFA/LUFA/Drivers/USB/Core/AVR8/../AVR8/../AVR8/Endpoint_AVR8.h **** 				#elif defined(USB_SERIES_2_AVR)
 4144               		.loc 2 295 38 view .LVU1168
 4145 007c 182F      		mov r17,r24
 4146               	.LVL367:
 295:LUFA/LUFA/Drivers/USB/Core/AVR8/../AVR8/../AVR8/Endpoint_AVR8.h **** 				#elif defined(USB_SERIES_2_AVR)
 4147               		.loc 2 295 38 view .LVU1169
 4148               	.LBE463:
 4149               	.LBE462:
  61:LUFA/LUFA/Drivers/USB/Core/AVR8/Template/Template_Endpoint_Control_W.c **** 			{
 4150               		.loc 4 61 4 is_stmt 1 view .LVU1170
 4151               	.L299:
  61:LUFA/LUFA/Drivers/USB/Core/AVR8/Template/Template_Endpoint_Control_W.c **** 			{
 4152               		.loc 4 61 10 view .LVU1171
 4153 007e 2097      		sbiw r28,0
 4154 0080 01F0      		breq .L300
  61:LUFA/LUFA/Drivers/USB/Core/AVR8/Template/Template_Endpoint_Control_W.c **** 			{
 4155               		.loc 4 61 18 is_stmt 0 discriminator 1 view .LVU1172
 4156 0082 0830      		cpi r16,8
 4157 0084 1105      		cpc r17,__zero_reg__
 4158 0086 00F0      		brlo .L301
 4159               	.L300:
  69:LUFA/LUFA/Drivers/USB/Core/AVR8/Template/Template_Endpoint_Control_W.c **** 			Endpoint_ClearIN();
 4160               		.loc 4 69 4 is_stmt 1 view .LVU1173
  69:LUFA/LUFA/Drivers/USB/Core/AVR8/Template/Template_Endpoint_Control_W.c **** 			Endpoint_ClearIN();
 4161               		.loc 4 69 19 is_stmt 0 view .LVU1174
 4162 0088 81E0      		ldi r24,lo8(1)
 4163 008a 0830      		cpi r16,8
 4164 008c 1105      		cpc r17,__zero_reg__
 4165 008e 01F0      		breq .L302
 4166 0090 80E0      		ldi r24,0
 4167               	.L302:
 4168               	.LVL368:
  70:LUFA/LUFA/Drivers/USB/Core/AVR8/Template/Template_Endpoint_Control_W.c **** 		}
 4169               		.loc 4 70 4 is_stmt 1 view .LVU1175
 4170               	.LBB464:
 4171               	.LBI464:
 513:LUFA/LUFA/Drivers/USB/Core/AVR8/../AVR8/../AVR8/Endpoint_AVR8.h **** 			{
 4172               		.loc 2 513 23 view .LVU1176
 4173               	.LBB465:
 516:LUFA/LUFA/Drivers/USB/Core/AVR8/../AVR8/../AVR8/Endpoint_AVR8.h **** 				#else
 4174               		.loc 2 516 6 view .LVU1177
 516:LUFA/LUFA/Drivers/USB/Core/AVR8/../AVR8/../AVR8/Endpoint_AVR8.h **** 				#else
 4175               		.loc 2 516 13 is_stmt 0 view .LVU1178
 4176 0092 9091 E800 		lds r25,232
 4177 0096 9E77      		andi r25,lo8(126)
 4178 0098 9093 E800 		sts 232,r25
 4179               	.LVL369:
 520:LUFA/LUFA/Drivers/USB/Core/AVR8/../AVR8/../AVR8/Endpoint_AVR8.h **** 
 4180               		.loc 2 520 4 view .LVU1179
 4181 009c 00C0      		rjmp .L298
 4182               	.LVL370:
 4183               	.L301:
 520:LUFA/LUFA/Drivers/USB/Core/AVR8/../AVR8/../AVR8/Endpoint_AVR8.h **** 
 4184               		.loc 2 520 4 view .LVU1180
 4185               	.LBE465:
 4186               	.LBE464:
  63:LUFA/LUFA/Drivers/USB/Core/AVR8/Template/Template_Endpoint_Control_W.c **** 				TEMPLATE_BUFFER_MOVE(DataStream, 1);
 4187               		.loc 4 63 5 is_stmt 1 view .LVU1181
 4188 009e C701      		movw r24,r14
 4189 00a0 0E94 0000 		call eeprom_read_byte
 4190               	.LVL371:
 4191               	.LBB466:
 4192               	.LBI466:
 622:LUFA/LUFA/Drivers/USB/Core/AVR8/../AVR8/../AVR8/Endpoint_AVR8.h **** 			{
 4193               		.loc 2 622 23 view .LVU1182
 4194               	.LBB467:
 624:LUFA/LUFA/Drivers/USB/Core/AVR8/../AVR8/../AVR8/Endpoint_AVR8.h **** 			}
 4195               		.loc 2 624 5 view .LVU1183
 624:LUFA/LUFA/Drivers/USB/Core/AVR8/../AVR8/../AVR8/Endpoint_AVR8.h **** 			}
 4196               		.loc 2 624 12 is_stmt 0 view .LVU1184
 4197 00a4 8093 F100 		sts 241,r24
 4198               	.LVL372:
 624:LUFA/LUFA/Drivers/USB/Core/AVR8/../AVR8/../AVR8/Endpoint_AVR8.h **** 			}
 4199               		.loc 2 624 12 view .LVU1185
 4200               	.LBE467:
 4201               	.LBE466:
  64:LUFA/LUFA/Drivers/USB/Core/AVR8/Template/Template_Endpoint_Control_W.c **** 				Length--;
 4202               		.loc 4 64 5 is_stmt 1 view .LVU1186
 4203 00a8 8FEF      		ldi r24,-1
 4204 00aa E81A      		sub r14,r24
 4205 00ac F80A      		sbc r15,r24
 4206               	.LVL373:
  65:LUFA/LUFA/Drivers/USB/Core/AVR8/Template/Template_Endpoint_Control_W.c **** 				BytesInEndpoint++;
 4207               		.loc 4 65 5 view .LVU1187
  65:LUFA/LUFA/Drivers/USB/Core/AVR8/Template/Template_Endpoint_Control_W.c **** 				BytesInEndpoint++;
 4208               		.loc 4 65 11 is_stmt 0 view .LVU1188
 4209 00ae 2197      		sbiw r28,1
 4210               	.LVL374:
  66:LUFA/LUFA/Drivers/USB/Core/AVR8/Template/Template_Endpoint_Control_W.c **** 			}
 4211               		.loc 4 66 5 is_stmt 1 view .LVU1189
  66:LUFA/LUFA/Drivers/USB/Core/AVR8/Template/Template_Endpoint_Control_W.c **** 			}
 4212               		.loc 4 66 20 is_stmt 0 view .LVU1190
 4213 00b0 0F5F      		subi r16,-1
 4214 00b2 1F4F      		sbci r17,-1
 4215               	.LVL375:
  66:LUFA/LUFA/Drivers/USB/Core/AVR8/Template/Template_Endpoint_Control_W.c **** 			}
 4216               		.loc 4 66 20 view .LVU1191
 4217 00b4 00C0      		rjmp .L299
 4218               	.LVL376:
 4219               	.L304:
  66:LUFA/LUFA/Drivers/USB/Core/AVR8/Template/Template_Endpoint_Control_W.c **** 			}
 4220               		.loc 4 66 20 view .LVU1192
 4221               	.LBE461:
 4222               	.LBE454:
 4223               	.LBB468:
  76:LUFA/LUFA/Drivers/USB/Core/AVR8/Template/Template_Endpoint_Control_W.c **** 
 4224               		.loc 4 76 3 is_stmt 1 view .LVU1193
  76:LUFA/LUFA/Drivers/USB/Core/AVR8/Template/Template_Endpoint_Control_W.c **** 
 4225               		.loc 4 76 11 is_stmt 0 view .LVU1194
 4226 00b6 8EB3      		in r24,0x1e
 4227               	.LVL377:
  78:LUFA/LUFA/Drivers/USB/Core/AVR8/Template/Template_Endpoint_Control_W.c **** 		  return ENDPOINT_RWCSTREAM_DeviceDisconnected;
 4228               		.loc 4 78 3 is_stmt 1 view .LVU1195
  78:LUFA/LUFA/Drivers/USB/Core/AVR8/Template/Template_Endpoint_Control_W.c **** 		  return ENDPOINT_RWCSTREAM_DeviceDisconnected;
 4229               		.loc 4 78 6 is_stmt 0 view .LVU1196
 4230 00b8 8823      		tst r24
 4231 00ba 01F0      		breq .L309
  80:LUFA/LUFA/Drivers/USB/Core/AVR8/Template/Template_Endpoint_Control_W.c **** 		  return ENDPOINT_RWCSTREAM_BusSuspended;
 4232               		.loc 4 80 8 is_stmt 1 view .LVU1197
  80:LUFA/LUFA/Drivers/USB/Core/AVR8/Template/Template_Endpoint_Control_W.c **** 		  return ENDPOINT_RWCSTREAM_BusSuspended;
 4233               		.loc 4 80 11 is_stmt 0 view .LVU1198
 4234 00bc 8530      		cpi r24,lo8(5)
 4235 00be 01F0      		breq .+2
 4236 00c0 00C0      		rjmp .L316
 4237               	.LVL378:
 4238               	.L310:
  80:LUFA/LUFA/Drivers/USB/Core/AVR8/Template/Template_Endpoint_Control_W.c **** 		  return ENDPOINT_RWCSTREAM_BusSuspended;
 4239               		.loc 4 80 11 view .LVU1199
 4240               	.LBE468:
 4241               	.LBB469:
  51:LUFA/LUFA/Drivers/USB/Core/AVR8/Template/Template_Endpoint_Control_W.c **** 		else if (Endpoint_IsSETUPReceived())
 4242               		.loc 4 51 12 view .LVU1200
 4243 00c2 83E0      		ldi r24,lo8(3)
 4244 00c4 00C0      		rjmp .L293
 4245               	.LVL379:
 4246               	.L308:
  53:LUFA/LUFA/Drivers/USB/Core/AVR8/Template/Template_Endpoint_Control_W.c **** 		else if (Endpoint_IsOUTReceived())
 4247               		.loc 4 53 12 view .LVU1201
 4248 00c6 81E0      		ldi r24,lo8(1)
 4249               	.LVL380:
  53:LUFA/LUFA/Drivers/USB/Core/AVR8/Template/Template_Endpoint_Control_W.c **** 		else if (Endpoint_IsOUTReceived())
 4250               		.loc 4 53 12 view .LVU1202
 4251 00c8 00C0      		rjmp .L293
 4252               	.L309:
  49:LUFA/LUFA/Drivers/USB/Core/AVR8/Template/Template_Endpoint_Control_W.c **** 		else if (USB_DeviceState_LCL == DEVICE_STATE_Suspended)
 4253               		.loc 4 49 12 view .LVU1203
 4254 00ca 82E0      		ldi r24,lo8(2)
 4255 00cc 00C0      		rjmp .L293
 4256               	.LBE469:
 4257               		.cfi_endproc
 4258               	.LFE99:
 4260               		.section	.text.Endpoint_Write_Control_EStream_BE,"ax",@progbits
 4261               	.global	Endpoint_Write_Control_EStream_BE
 4263               	Endpoint_Write_Control_EStream_BE:
 4264               	.LVL381:
 4265               	.LFB100:
  35:LUFA/LUFA/Drivers/USB/Core/AVR8/Template/Template_Endpoint_Control_W.c **** 	uint8_t* DataStream     = ((uint8_t*)Buffer + TEMPLATE_BUFFER_OFFSET(Length));
 4266               		.loc 4 35 1 is_stmt 1 view -0
 4267               		.cfi_startproc
  35:LUFA/LUFA/Drivers/USB/Core/AVR8/Template/Template_Endpoint_Control_W.c **** 	uint8_t* DataStream     = ((uint8_t*)Buffer + TEMPLATE_BUFFER_OFFSET(Length));
 4268               		.loc 4 35 1 is_stmt 0 view .LVU1205
 4269 0000 EF92      		push r14
 4270               	.LCFI110:
 4271               		.cfi_def_cfa_offset 3
 4272               		.cfi_offset 14, -2
 4273 0002 FF92      		push r15
 4274               	.LCFI111:
 4275               		.cfi_def_cfa_offset 4
 4276               		.cfi_offset 15, -3
 4277 0004 0F93      		push r16
 4278               	.LCFI112:
 4279               		.cfi_def_cfa_offset 5
 4280               		.cfi_offset 16, -4
 4281 0006 1F93      		push r17
 4282               	.LCFI113:
 4283               		.cfi_def_cfa_offset 6
 4284               		.cfi_offset 17, -5
 4285 0008 CF93      		push r28
 4286               	.LCFI114:
 4287               		.cfi_def_cfa_offset 7
 4288               		.cfi_offset 28, -6
 4289 000a DF93      		push r29
 4290               	.LCFI115:
 4291               		.cfi_def_cfa_offset 8
 4292               		.cfi_offset 29, -7
 4293               	/* prologue: function */
 4294               	/* frame size = 0 */
 4295               	/* stack size = 6 */
 4296               	.L__stack_usage = 6
 4297 000c EB01      		movw r28,r22
  36:LUFA/LUFA/Drivers/USB/Core/AVR8/Template/Template_Endpoint_Control_W.c **** 	bool     LastPacketFull = false;
 4298               		.loc 4 36 2 is_stmt 1 view .LVU1206
  36:LUFA/LUFA/Drivers/USB/Core/AVR8/Template/Template_Endpoint_Control_W.c **** 	bool     LastPacketFull = false;
 4299               		.loc 4 36 46 is_stmt 0 view .LVU1207
 4300 000e 7B01      		movw r14,r22
 4301 0010 21E0      		ldi r18,1
 4302 0012 E21A      		sub r14,r18
 4303 0014 F108      		sbc r15,__zero_reg__
  36:LUFA/LUFA/Drivers/USB/Core/AVR8/Template/Template_Endpoint_Control_W.c **** 	bool     LastPacketFull = false;
 4304               		.loc 4 36 11 view .LVU1208
 4305 0016 E80E      		add r14,r24
 4306 0018 F91E      		adc r15,r25
 4307               	.LVL382:
  37:LUFA/LUFA/Drivers/USB/Core/AVR8/Template/Template_Endpoint_Control_W.c **** 
 4308               		.loc 4 37 2 is_stmt 1 view .LVU1209
  39:LUFA/LUFA/Drivers/USB/Core/AVR8/Template/Template_Endpoint_Control_W.c **** 	  Length = USB_ControlRequest.wLength;
 4309               		.loc 4 39 2 view .LVU1210
  39:LUFA/LUFA/Drivers/USB/Core/AVR8/Template/Template_Endpoint_Control_W.c **** 	  Length = USB_ControlRequest.wLength;
 4310               		.loc 4 39 33 is_stmt 0 view .LVU1211
 4311 001a 8091 0000 		lds r24,USB_ControlRequest+6
 4312 001e 9091 0000 		lds r25,USB_ControlRequest+6+1
 4313               	.LVL383:
  39:LUFA/LUFA/Drivers/USB/Core/AVR8/Template/Template_Endpoint_Control_W.c **** 	  Length = USB_ControlRequest.wLength;
 4314               		.loc 4 39 5 view .LVU1212
 4315 0022 8617      		cp r24,r22
 4316 0024 9707      		cpc r25,r23
 4317 0026 00F0      		brlo .L332
  41:LUFA/LUFA/Drivers/USB/Core/AVR8/Template/Template_Endpoint_Control_W.c **** 	  Endpoint_ClearIN();
 4318               		.loc 4 41 7 is_stmt 1 view .LVU1213
  41:LUFA/LUFA/Drivers/USB/Core/AVR8/Template/Template_Endpoint_Control_W.c **** 	  Endpoint_ClearIN();
 4319               		.loc 4 41 10 is_stmt 0 view .LVU1214
 4320 0028 2097      		sbiw r28,0
 4321 002a 01F4      		brne .L321
  42:LUFA/LUFA/Drivers/USB/Core/AVR8/Template/Template_Endpoint_Control_W.c **** 
 4322               		.loc 4 42 4 is_stmt 1 view .LVU1215
 4323               	.LBB470:
 4324               	.LBI470:
 513:LUFA/LUFA/Drivers/USB/Core/AVR8/../AVR8/../AVR8/Endpoint_AVR8.h **** 			{
 4325               		.loc 2 513 23 view .LVU1216
 4326               	.LBB471:
 516:LUFA/LUFA/Drivers/USB/Core/AVR8/../AVR8/../AVR8/Endpoint_AVR8.h **** 				#else
 4327               		.loc 2 516 6 view .LVU1217
 516:LUFA/LUFA/Drivers/USB/Core/AVR8/../AVR8/../AVR8/Endpoint_AVR8.h **** 				#else
 4328               		.loc 2 516 13 is_stmt 0 view .LVU1218
 4329 002c 8091 E800 		lds r24,232
 4330 0030 8E77      		andi r24,lo8(126)
 4331 0032 8093 E800 		sts 232,r24
 4332               	.L321:
 516:LUFA/LUFA/Drivers/USB/Core/AVR8/../AVR8/../AVR8/Endpoint_AVR8.h **** 				#else
 4333               		.loc 2 516 13 view .LVU1219
 4334               	.LBE471:
 4335               	.LBE470:
 4336 0036 80E0      		ldi r24,0
 4337               	.LVL384:
 4338               	.L325:
  44:LUFA/LUFA/Drivers/USB/Core/AVR8/Template/Template_Endpoint_Control_W.c **** 	{
 4339               		.loc 4 44 8 is_stmt 1 view .LVU1220
 4340 0038 2097      		sbiw r28,0
 4341 003a 01F4      		brne .L330
  44:LUFA/LUFA/Drivers/USB/Core/AVR8/Template/Template_Endpoint_Control_W.c **** 	{
 4342               		.loc 4 44 16 is_stmt 0 discriminator 1 view .LVU1221
 4343 003c 8111      		cpse r24,__zero_reg__
 4344 003e 00C0      		rjmp .L330
 4345               	.LVL385:
 4346               	.L343:
  74:LUFA/LUFA/Drivers/USB/Core/AVR8/Template/Template_Endpoint_Control_W.c **** 	{
 4347               		.loc 4 74 8 is_stmt 1 view .LVU1222
 4348               	.LBB472:
 4349               	.LBI472:
 477:LUFA/LUFA/Drivers/USB/Core/AVR8/../AVR8/../AVR8/Endpoint_AVR8.h **** 			{
 4350               		.loc 2 477 23 view .LVU1223
 4351               	.LBB473:
 479:LUFA/LUFA/Drivers/USB/Core/AVR8/../AVR8/../AVR8/Endpoint_AVR8.h **** 			}
 4352               		.loc 2 479 5 view .LVU1224
 479:LUFA/LUFA/Drivers/USB/Core/AVR8/../AVR8/../AVR8/Endpoint_AVR8.h **** 			}
 4353               		.loc 2 479 14 is_stmt 0 view .LVU1225
 4354 0040 8091 E800 		lds r24,232
 4355               	.LBE473:
 4356               	.LBE472:
  74:LUFA/LUFA/Drivers/USB/Core/AVR8/Template/Template_Endpoint_Control_W.c **** 	{
 4357               		.loc 4 74 8 view .LVU1226
 4358 0044 82FF      		sbrs r24,2
 4359 0046 00C0      		rjmp .L331
  84:LUFA/LUFA/Drivers/USB/Core/AVR8/Template/Template_Endpoint_Control_W.c **** }
 4360               		.loc 4 84 9 view .LVU1227
 4361 0048 80E0      		ldi r24,0
 4362               	.L320:
 4363               	/* epilogue start */
 4364               		.loc 4 85 1 view .LVU1228
 4365 004a DF91      		pop r29
 4366 004c CF91      		pop r28
 4367               	.LVL386:
 4368               		.loc 4 85 1 view .LVU1229
 4369 004e 1F91      		pop r17
 4370 0050 0F91      		pop r16
 4371 0052 FF90      		pop r15
 4372 0054 EF90      		pop r14
 4373               	.LVL387:
 4374               		.loc 4 85 1 view .LVU1230
 4375 0056 0895      		ret
 4376               	.LVL388:
 4377               	.L332:
 4378               		.loc 4 85 1 view .LVU1231
 4379 0058 EC01      		movw r28,r24
 4380 005a 00C0      		rjmp .L321
 4381               	.LVL389:
 4382               	.L330:
 4383               	.LBB474:
  46:LUFA/LUFA/Drivers/USB/Core/AVR8/Template/Template_Endpoint_Control_W.c **** 
 4384               		.loc 4 46 3 is_stmt 1 view .LVU1232
  46:LUFA/LUFA/Drivers/USB/Core/AVR8/Template/Template_Endpoint_Control_W.c **** 
 4385               		.loc 4 46 11 is_stmt 0 view .LVU1233
 4386 005c 9EB3      		in r25,0x1e
 4387               	.LVL390:
  48:LUFA/LUFA/Drivers/USB/Core/AVR8/Template/Template_Endpoint_Control_W.c **** 		  return ENDPOINT_RWCSTREAM_DeviceDisconnected;
 4388               		.loc 4 48 3 is_stmt 1 view .LVU1234
  48:LUFA/LUFA/Drivers/USB/Core/AVR8/Template/Template_Endpoint_Control_W.c **** 		  return ENDPOINT_RWCSTREAM_DeviceDisconnected;
 4389               		.loc 4 48 6 is_stmt 0 view .LVU1235
 4390 005e 9923      		tst r25
 4391 0060 01F0      		breq .L336
  50:LUFA/LUFA/Drivers/USB/Core/AVR8/Template/Template_Endpoint_Control_W.c **** 		  return ENDPOINT_RWCSTREAM_BusSuspended;
 4392               		.loc 4 50 8 is_stmt 1 view .LVU1236
  50:LUFA/LUFA/Drivers/USB/Core/AVR8/Template/Template_Endpoint_Control_W.c **** 		  return ENDPOINT_RWCSTREAM_BusSuspended;
 4393               		.loc 4 50 11 is_stmt 0 view .LVU1237
 4394 0062 9530      		cpi r25,lo8(5)
 4395 0064 01F0      		breq .L337
  52:LUFA/LUFA/Drivers/USB/Core/AVR8/Template/Template_Endpoint_Control_W.c **** 		  return ENDPOINT_RWCSTREAM_HostAborted;
 4396               		.loc 4 52 8 is_stmt 1 view .LVU1238
 4397               	.LBB475:
 4398               	.LBI475:
 489:LUFA/LUFA/Drivers/USB/Core/AVR8/../AVR8/../AVR8/Endpoint_AVR8.h **** 			{
 4399               		.loc 2 489 23 view .LVU1239
 4400               	.LBB476:
 491:LUFA/LUFA/Drivers/USB/Core/AVR8/../AVR8/../AVR8/Endpoint_AVR8.h **** 			}
 4401               		.loc 2 491 5 view .LVU1240
 491:LUFA/LUFA/Drivers/USB/Core/AVR8/../AVR8/../AVR8/Endpoint_AVR8.h **** 			}
 4402               		.loc 2 491 14 is_stmt 0 view .LVU1241
 4403 0066 9091 E800 		lds r25,232
 4404               	.LVL391:
 491:LUFA/LUFA/Drivers/USB/Core/AVR8/../AVR8/../AVR8/Endpoint_AVR8.h **** 			}
 4405               		.loc 2 491 14 view .LVU1242
 4406               	.LBE476:
 4407               	.LBE475:
  52:LUFA/LUFA/Drivers/USB/Core/AVR8/Template/Template_Endpoint_Control_W.c **** 		  return ENDPOINT_RWCSTREAM_HostAborted;
 4408               		.loc 4 52 11 view .LVU1243
 4409 006a 93FD      		sbrc r25,3
 4410 006c 00C0      		rjmp .L335
  54:LUFA/LUFA/Drivers/USB/Core/AVR8/Template/Template_Endpoint_Control_W.c **** 		  break;
 4411               		.loc 4 54 8 is_stmt 1 view .LVU1244
 4412               	.LBB477:
 4413               	.LBI477:
 477:LUFA/LUFA/Drivers/USB/Core/AVR8/../AVR8/../AVR8/Endpoint_AVR8.h **** 			{
 4414               		.loc 2 477 23 view .LVU1245
 4415               	.LBB478:
 479:LUFA/LUFA/Drivers/USB/Core/AVR8/../AVR8/../AVR8/Endpoint_AVR8.h **** 			}
 4416               		.loc 2 479 5 view .LVU1246
 479:LUFA/LUFA/Drivers/USB/Core/AVR8/../AVR8/../AVR8/Endpoint_AVR8.h **** 			}
 4417               		.loc 2 479 14 is_stmt 0 view .LVU1247
 4418 006e 9091 E800 		lds r25,232
 4419               	.LBE478:
 4420               	.LBE477:
  54:LUFA/LUFA/Drivers/USB/Core/AVR8/Template/Template_Endpoint_Control_W.c **** 		  break;
 4421               		.loc 4 54 11 view .LVU1248
 4422 0072 92FD      		sbrc r25,2
 4423 0074 00C0      		rjmp .L343
  57:LUFA/LUFA/Drivers/USB/Core/AVR8/Template/Template_Endpoint_Control_W.c **** 		{
 4424               		.loc 4 57 3 is_stmt 1 view .LVU1249
 4425               	.LBB479:
 4426               	.LBI479:
 465:LUFA/LUFA/Drivers/USB/Core/AVR8/../AVR8/../AVR8/Endpoint_AVR8.h **** 			{
 4427               		.loc 2 465 23 view .LVU1250
 4428               	.LBB480:
 467:LUFA/LUFA/Drivers/USB/Core/AVR8/../AVR8/../AVR8/Endpoint_AVR8.h **** 			}
 4429               		.loc 2 467 5 view .LVU1251
 467:LUFA/LUFA/Drivers/USB/Core/AVR8/../AVR8/../AVR8/Endpoint_AVR8.h **** 			}
 4430               		.loc 2 467 14 is_stmt 0 view .LVU1252
 4431 0076 9091 E800 		lds r25,232
 4432               	.LBE480:
 4433               	.LBE479:
  57:LUFA/LUFA/Drivers/USB/Core/AVR8/Template/Template_Endpoint_Control_W.c **** 		{
 4434               		.loc 4 57 6 view .LVU1253
 4435 007a 90FF      		sbrs r25,0
 4436 007c 00C0      		rjmp .L325
 4437               	.LBB481:
  59:LUFA/LUFA/Drivers/USB/Core/AVR8/Template/Template_Endpoint_Control_W.c **** 
 4438               		.loc 4 59 4 is_stmt 1 view .LVU1254
 4439               	.LBB482:
 4440               	.LBI482:
 290:LUFA/LUFA/Drivers/USB/Core/AVR8/../AVR8/../AVR8/Endpoint_AVR8.h **** 			{
 4441               		.loc 2 290 27 view .LVU1255
 4442               	.LBB483:
 295:LUFA/LUFA/Drivers/USB/Core/AVR8/../AVR8/../AVR8/Endpoint_AVR8.h **** 				#elif defined(USB_SERIES_2_AVR)
 4443               		.loc 2 295 6 view .LVU1256
 295:LUFA/LUFA/Drivers/USB/Core/AVR8/../AVR8/../AVR8/Endpoint_AVR8.h **** 				#elif defined(USB_SERIES_2_AVR)
 4444               		.loc 2 295 25 is_stmt 0 view .LVU1257
 4445 007e 8091 F300 		lds r24,243
 4446               	.LVL392:
 295:LUFA/LUFA/Drivers/USB/Core/AVR8/../AVR8/../AVR8/Endpoint_AVR8.h **** 				#elif defined(USB_SERIES_2_AVR)
 4447               		.loc 2 295 40 view .LVU1258
 4448 0082 0091 F200 		lds r16,242
 295:LUFA/LUFA/Drivers/USB/Core/AVR8/../AVR8/../AVR8/Endpoint_AVR8.h **** 				#elif defined(USB_SERIES_2_AVR)
 4449               		.loc 2 295 38 view .LVU1259
 4450 0086 182F      		mov r17,r24
 4451               	.LVL393:
 295:LUFA/LUFA/Drivers/USB/Core/AVR8/../AVR8/../AVR8/Endpoint_AVR8.h **** 				#elif defined(USB_SERIES_2_AVR)
 4452               		.loc 2 295 38 view .LVU1260
 4453               	.LBE483:
 4454               	.LBE482:
  61:LUFA/LUFA/Drivers/USB/Core/AVR8/Template/Template_Endpoint_Control_W.c **** 			{
 4455               		.loc 4 61 4 is_stmt 1 view .LVU1261
 4456               	.L326:
  61:LUFA/LUFA/Drivers/USB/Core/AVR8/Template/Template_Endpoint_Control_W.c **** 			{
 4457               		.loc 4 61 10 view .LVU1262
 4458 0088 2097      		sbiw r28,0
 4459 008a 01F0      		breq .L327
  61:LUFA/LUFA/Drivers/USB/Core/AVR8/Template/Template_Endpoint_Control_W.c **** 			{
 4460               		.loc 4 61 18 is_stmt 0 discriminator 1 view .LVU1263
 4461 008c 0830      		cpi r16,8
 4462 008e 1105      		cpc r17,__zero_reg__
 4463 0090 00F0      		brlo .L328
 4464               	.L327:
  69:LUFA/LUFA/Drivers/USB/Core/AVR8/Template/Template_Endpoint_Control_W.c **** 			Endpoint_ClearIN();
 4465               		.loc 4 69 4 is_stmt 1 view .LVU1264
  69:LUFA/LUFA/Drivers/USB/Core/AVR8/Template/Template_Endpoint_Control_W.c **** 			Endpoint_ClearIN();
 4466               		.loc 4 69 19 is_stmt 0 view .LVU1265
 4467 0092 81E0      		ldi r24,lo8(1)
 4468 0094 0830      		cpi r16,8
 4469 0096 1105      		cpc r17,__zero_reg__
 4470 0098 01F0      		breq .L329
 4471 009a 80E0      		ldi r24,0
 4472               	.L329:
 4473               	.LVL394:
  70:LUFA/LUFA/Drivers/USB/Core/AVR8/Template/Template_Endpoint_Control_W.c **** 		}
 4474               		.loc 4 70 4 is_stmt 1 view .LVU1266
 4475               	.LBB484:
 4476               	.LBI484:
 513:LUFA/LUFA/Drivers/USB/Core/AVR8/../AVR8/../AVR8/Endpoint_AVR8.h **** 			{
 4477               		.loc 2 513 23 view .LVU1267
 4478               	.LBB485:
 516:LUFA/LUFA/Drivers/USB/Core/AVR8/../AVR8/../AVR8/Endpoint_AVR8.h **** 				#else
 4479               		.loc 2 516 6 view .LVU1268
 516:LUFA/LUFA/Drivers/USB/Core/AVR8/../AVR8/../AVR8/Endpoint_AVR8.h **** 				#else
 4480               		.loc 2 516 13 is_stmt 0 view .LVU1269
 4481 009c 9091 E800 		lds r25,232
 4482 00a0 9E77      		andi r25,lo8(126)
 4483 00a2 9093 E800 		sts 232,r25
 4484               	.LVL395:
 520:LUFA/LUFA/Drivers/USB/Core/AVR8/../AVR8/../AVR8/Endpoint_AVR8.h **** 
 4485               		.loc 2 520 4 view .LVU1270
 4486 00a6 00C0      		rjmp .L325
 4487               	.LVL396:
 4488               	.L328:
 520:LUFA/LUFA/Drivers/USB/Core/AVR8/../AVR8/../AVR8/Endpoint_AVR8.h **** 
 4489               		.loc 2 520 4 view .LVU1271
 4490               	.LBE485:
 4491               	.LBE484:
  63:LUFA/LUFA/Drivers/USB/Core/AVR8/Template/Template_Endpoint_Control_W.c **** 				TEMPLATE_BUFFER_MOVE(DataStream, 1);
 4492               		.loc 4 63 5 is_stmt 1 view .LVU1272
 4493 00a8 C701      		movw r24,r14
 4494 00aa 0E94 0000 		call eeprom_read_byte
 4495               	.LVL397:
 4496               	.LBB486:
 4497               	.LBI486:
 622:LUFA/LUFA/Drivers/USB/Core/AVR8/../AVR8/../AVR8/Endpoint_AVR8.h **** 			{
 4498               		.loc 2 622 23 view .LVU1273
 4499               	.LBB487:
 624:LUFA/LUFA/Drivers/USB/Core/AVR8/../AVR8/../AVR8/Endpoint_AVR8.h **** 			}
 4500               		.loc 2 624 5 view .LVU1274
 624:LUFA/LUFA/Drivers/USB/Core/AVR8/../AVR8/../AVR8/Endpoint_AVR8.h **** 			}
 4501               		.loc 2 624 12 is_stmt 0 view .LVU1275
 4502 00ae 8093 F100 		sts 241,r24
 4503               	.LVL398:
 624:LUFA/LUFA/Drivers/USB/Core/AVR8/../AVR8/../AVR8/Endpoint_AVR8.h **** 			}
 4504               		.loc 2 624 12 view .LVU1276
 4505               	.LBE487:
 4506               	.LBE486:
  64:LUFA/LUFA/Drivers/USB/Core/AVR8/Template/Template_Endpoint_Control_W.c **** 				Length--;
 4507               		.loc 4 64 5 is_stmt 1 view .LVU1277
 4508 00b2 81E0      		ldi r24,1
 4509 00b4 E81A      		sub r14,r24
 4510 00b6 F108      		sbc r15,__zero_reg__
 4511               	.LVL399:
  65:LUFA/LUFA/Drivers/USB/Core/AVR8/Template/Template_Endpoint_Control_W.c **** 				BytesInEndpoint++;
 4512               		.loc 4 65 5 view .LVU1278
  65:LUFA/LUFA/Drivers/USB/Core/AVR8/Template/Template_Endpoint_Control_W.c **** 				BytesInEndpoint++;
 4513               		.loc 4 65 11 is_stmt 0 view .LVU1279
 4514 00b8 2197      		sbiw r28,1
 4515               	.LVL400:
  66:LUFA/LUFA/Drivers/USB/Core/AVR8/Template/Template_Endpoint_Control_W.c **** 			}
 4516               		.loc 4 66 5 is_stmt 1 view .LVU1280
  66:LUFA/LUFA/Drivers/USB/Core/AVR8/Template/Template_Endpoint_Control_W.c **** 			}
 4517               		.loc 4 66 20 is_stmt 0 view .LVU1281
 4518 00ba 0F5F      		subi r16,-1
 4519 00bc 1F4F      		sbci r17,-1
 4520               	.LVL401:
  66:LUFA/LUFA/Drivers/USB/Core/AVR8/Template/Template_Endpoint_Control_W.c **** 			}
 4521               		.loc 4 66 20 view .LVU1282
 4522 00be 00C0      		rjmp .L326
 4523               	.LVL402:
 4524               	.L331:
  66:LUFA/LUFA/Drivers/USB/Core/AVR8/Template/Template_Endpoint_Control_W.c **** 			}
 4525               		.loc 4 66 20 view .LVU1283
 4526               	.LBE481:
 4527               	.LBE474:
 4528               	.LBB488:
  76:LUFA/LUFA/Drivers/USB/Core/AVR8/Template/Template_Endpoint_Control_W.c **** 
 4529               		.loc 4 76 3 is_stmt 1 view .LVU1284
  76:LUFA/LUFA/Drivers/USB/Core/AVR8/Template/Template_Endpoint_Control_W.c **** 
 4530               		.loc 4 76 11 is_stmt 0 view .LVU1285
 4531 00c0 8EB3      		in r24,0x1e
 4532               	.LVL403:
  78:LUFA/LUFA/Drivers/USB/Core/AVR8/Template/Template_Endpoint_Control_W.c **** 		  return ENDPOINT_RWCSTREAM_DeviceDisconnected;
 4533               		.loc 4 78 3 is_stmt 1 view .LVU1286
  78:LUFA/LUFA/Drivers/USB/Core/AVR8/Template/Template_Endpoint_Control_W.c **** 		  return ENDPOINT_RWCSTREAM_DeviceDisconnected;
 4534               		.loc 4 78 6 is_stmt 0 view .LVU1287
 4535 00c2 8823      		tst r24
 4536 00c4 01F0      		breq .L336
  80:LUFA/LUFA/Drivers/USB/Core/AVR8/Template/Template_Endpoint_Control_W.c **** 		  return ENDPOINT_RWCSTREAM_BusSuspended;
 4537               		.loc 4 80 8 is_stmt 1 view .LVU1288
  80:LUFA/LUFA/Drivers/USB/Core/AVR8/Template/Template_Endpoint_Control_W.c **** 		  return ENDPOINT_RWCSTREAM_BusSuspended;
 4538               		.loc 4 80 11 is_stmt 0 view .LVU1289
 4539 00c6 8530      		cpi r24,lo8(5)
 4540 00c8 01F0      		breq .+2
 4541 00ca 00C0      		rjmp .L343
 4542               	.LVL404:
 4543               	.L337:
  80:LUFA/LUFA/Drivers/USB/Core/AVR8/Template/Template_Endpoint_Control_W.c **** 		  return ENDPOINT_RWCSTREAM_BusSuspended;
 4544               		.loc 4 80 11 view .LVU1290
 4545               	.LBE488:
 4546               	.LBB489:
  51:LUFA/LUFA/Drivers/USB/Core/AVR8/Template/Template_Endpoint_Control_W.c **** 		else if (Endpoint_IsSETUPReceived())
 4547               		.loc 4 51 12 view .LVU1291
 4548 00cc 83E0      		ldi r24,lo8(3)
 4549 00ce 00C0      		rjmp .L320
 4550               	.LVL405:
 4551               	.L335:
  53:LUFA/LUFA/Drivers/USB/Core/AVR8/Template/Template_Endpoint_Control_W.c **** 		else if (Endpoint_IsOUTReceived())
 4552               		.loc 4 53 12 view .LVU1292
 4553 00d0 81E0      		ldi r24,lo8(1)
 4554               	.LVL406:
  53:LUFA/LUFA/Drivers/USB/Core/AVR8/Template/Template_Endpoint_Control_W.c **** 		else if (Endpoint_IsOUTReceived())
 4555               		.loc 4 53 12 view .LVU1293
 4556 00d2 00C0      		rjmp .L320
 4557               	.L336:
  49:LUFA/LUFA/Drivers/USB/Core/AVR8/Template/Template_Endpoint_Control_W.c **** 		else if (USB_DeviceState_LCL == DEVICE_STATE_Suspended)
 4558               		.loc 4 49 12 view .LVU1294
 4559 00d4 82E0      		ldi r24,lo8(2)
 4560 00d6 00C0      		rjmp .L320
 4561               	.LBE489:
 4562               		.cfi_endproc
 4563               	.LFE100:
 4565               		.section	.text.Endpoint_Read_Control_EStream_LE,"ax",@progbits
 4566               	.global	Endpoint_Read_Control_EStream_LE
 4568               	Endpoint_Read_Control_EStream_LE:
 4569               	.LVL407:
 4570               	.LFB101:
  35:LUFA/LUFA/Drivers/USB/Core/AVR8/Template/Template_Endpoint_Control_R.c **** 	uint8_t* DataStream = ((uint8_t*)Buffer + TEMPLATE_BUFFER_OFFSET(Length));
 4571               		.loc 5 35 1 is_stmt 1 view -0
 4572               		.cfi_startproc
  35:LUFA/LUFA/Drivers/USB/Core/AVR8/Template/Template_Endpoint_Control_R.c **** 	uint8_t* DataStream = ((uint8_t*)Buffer + TEMPLATE_BUFFER_OFFSET(Length));
 4573               		.loc 5 35 1 is_stmt 0 view .LVU1296
 4574 0000 0F93      		push r16
 4575               	.LCFI116:
 4576               		.cfi_def_cfa_offset 3
 4577               		.cfi_offset 16, -2
 4578 0002 1F93      		push r17
 4579               	.LCFI117:
 4580               		.cfi_def_cfa_offset 4
 4581               		.cfi_offset 17, -3
 4582 0004 CF93      		push r28
 4583               	.LCFI118:
 4584               		.cfi_def_cfa_offset 5
 4585               		.cfi_offset 28, -4
 4586 0006 DF93      		push r29
 4587               	.LCFI119:
 4588               		.cfi_def_cfa_offset 6
 4589               		.cfi_offset 29, -5
 4590               	/* prologue: function */
 4591               	/* frame size = 0 */
 4592               	/* stack size = 4 */
 4593               	.L__stack_usage = 4
 4594 0008 8C01      		movw r16,r24
 4595 000a EB01      		movw r28,r22
  36:LUFA/LUFA/Drivers/USB/Core/AVR8/Template/Template_Endpoint_Control_R.c **** 
 4596               		.loc 5 36 2 is_stmt 1 view .LVU1297
 4597               	.LVL408:
  38:LUFA/LUFA/Drivers/USB/Core/AVR8/Template/Template_Endpoint_Control_R.c **** 	  Endpoint_ClearOUT();
 4598               		.loc 5 38 2 view .LVU1298
  38:LUFA/LUFA/Drivers/USB/Core/AVR8/Template/Template_Endpoint_Control_R.c **** 	  Endpoint_ClearOUT();
 4599               		.loc 5 38 5 is_stmt 0 view .LVU1299
 4600 000c 2097      		sbiw r28,0
 4601 000e 01F4      		brne .L352
 4602               	.LVL409:
 4603               	.L353:
 4604               	.LBB490:
  61:LUFA/LUFA/Drivers/USB/Core/AVR8/Template/Template_Endpoint_Control_R.c **** 		}
 4605               		.loc 5 61 4 is_stmt 1 view .LVU1300
 4606               	.LBB491:
 4607               	.LBI491:
 528:LUFA/LUFA/Drivers/USB/Core/AVR8/../AVR8/../AVR8/Endpoint_AVR8.h **** 			{
 4608               		.loc 2 528 23 view .LVU1301
 4609               	.LBB492:
 531:LUFA/LUFA/Drivers/USB/Core/AVR8/../AVR8/../AVR8/Endpoint_AVR8.h **** 				#else
 4610               		.loc 2 531 6 view .LVU1302
 531:LUFA/LUFA/Drivers/USB/Core/AVR8/../AVR8/../AVR8/Endpoint_AVR8.h **** 				#else
 4611               		.loc 2 531 13 is_stmt 0 view .LVU1303
 4612 0010 8091 E800 		lds r24,232
 4613 0014 8B77      		andi r24,lo8(123)
 4614 0016 8093 E800 		sts 232,r24
 4615               	.L352:
 531:LUFA/LUFA/Drivers/USB/Core/AVR8/../AVR8/../AVR8/Endpoint_AVR8.h **** 				#else
 4616               		.loc 2 531 13 view .LVU1304
 4617               	.LBE492:
 4618               	.LBE491:
 4619               	.LBE490:
  41:LUFA/LUFA/Drivers/USB/Core/AVR8/Template/Template_Endpoint_Control_R.c **** 	{
 4620               		.loc 5 41 8 is_stmt 1 view .LVU1305
 4621 001a 2097      		sbiw r28,0
 4622 001c 01F4      		brne .L355
 4623               	.L356:
  65:LUFA/LUFA/Drivers/USB/Core/AVR8/Template/Template_Endpoint_Control_R.c **** 	{
 4624               		.loc 5 65 8 view .LVU1306
 4625               	.LBB501:
 4626               	.LBI501:
 465:LUFA/LUFA/Drivers/USB/Core/AVR8/../AVR8/../AVR8/Endpoint_AVR8.h **** 			{
 4627               		.loc 2 465 23 view .LVU1307
 4628               	.LBB502:
 467:LUFA/LUFA/Drivers/USB/Core/AVR8/../AVR8/../AVR8/Endpoint_AVR8.h **** 			}
 4629               		.loc 2 467 5 view .LVU1308
 467:LUFA/LUFA/Drivers/USB/Core/AVR8/../AVR8/../AVR8/Endpoint_AVR8.h **** 			}
 4630               		.loc 2 467 14 is_stmt 0 view .LVU1309
 4631 001e 8091 E800 		lds r24,232
 4632               	.LBE502:
 4633               	.LBE501:
  65:LUFA/LUFA/Drivers/USB/Core/AVR8/Template/Template_Endpoint_Control_R.c **** 	{
 4634               		.loc 5 65 8 view .LVU1310
 4635 0022 80FF      		sbrs r24,0
 4636 0024 00C0      		rjmp .L357
  75:LUFA/LUFA/Drivers/USB/Core/AVR8/Template/Template_Endpoint_Control_R.c **** }
 4637               		.loc 5 75 9 view .LVU1311
 4638 0026 80E0      		ldi r24,0
 4639               	.L347:
 4640               	/* epilogue start */
 4641               		.loc 5 76 1 view .LVU1312
 4642 0028 DF91      		pop r29
 4643 002a CF91      		pop r28
 4644               	.LVL410:
 4645               		.loc 5 76 1 view .LVU1313
 4646 002c 1F91      		pop r17
 4647 002e 0F91      		pop r16
 4648               	.LVL411:
 4649               		.loc 5 76 1 view .LVU1314
 4650 0030 0895      		ret
 4651               	.LVL412:
 4652               	.L355:
 4653               	.LBB503:
  43:LUFA/LUFA/Drivers/USB/Core/AVR8/Template/Template_Endpoint_Control_R.c **** 
 4654               		.loc 5 43 3 is_stmt 1 view .LVU1315
  43:LUFA/LUFA/Drivers/USB/Core/AVR8/Template/Template_Endpoint_Control_R.c **** 
 4655               		.loc 5 43 11 is_stmt 0 view .LVU1316
 4656 0032 8EB3      		in r24,0x1e
 4657               	.LVL413:
  45:LUFA/LUFA/Drivers/USB/Core/AVR8/Template/Template_Endpoint_Control_R.c **** 		  return ENDPOINT_RWCSTREAM_DeviceDisconnected;
 4658               		.loc 5 45 3 is_stmt 1 view .LVU1317
  45:LUFA/LUFA/Drivers/USB/Core/AVR8/Template/Template_Endpoint_Control_R.c **** 		  return ENDPOINT_RWCSTREAM_DeviceDisconnected;
 4659               		.loc 5 45 6 is_stmt 0 view .LVU1318
 4660 0034 8823      		tst r24
 4661 0036 01F0      		breq .L361
  47:LUFA/LUFA/Drivers/USB/Core/AVR8/Template/Template_Endpoint_Control_R.c **** 		  return ENDPOINT_RWCSTREAM_BusSuspended;
 4662               		.loc 5 47 8 is_stmt 1 view .LVU1319
  47:LUFA/LUFA/Drivers/USB/Core/AVR8/Template/Template_Endpoint_Control_R.c **** 		  return ENDPOINT_RWCSTREAM_BusSuspended;
 4663               		.loc 5 47 11 is_stmt 0 view .LVU1320
 4664 0038 8530      		cpi r24,lo8(5)
 4665 003a 01F0      		breq .L362
  49:LUFA/LUFA/Drivers/USB/Core/AVR8/Template/Template_Endpoint_Control_R.c **** 		  return ENDPOINT_RWCSTREAM_HostAborted;
 4666               		.loc 5 49 8 is_stmt 1 view .LVU1321
 4667               	.LBB493:
 4668               	.LBI493:
 489:LUFA/LUFA/Drivers/USB/Core/AVR8/../AVR8/../AVR8/Endpoint_AVR8.h **** 			{
 4669               		.loc 2 489 23 view .LVU1322
 4670               	.LBB494:
 491:LUFA/LUFA/Drivers/USB/Core/AVR8/../AVR8/../AVR8/Endpoint_AVR8.h **** 			}
 4671               		.loc 2 491 5 view .LVU1323
 491:LUFA/LUFA/Drivers/USB/Core/AVR8/../AVR8/../AVR8/Endpoint_AVR8.h **** 			}
 4672               		.loc 2 491 14 is_stmt 0 view .LVU1324
 4673 003c 8091 E800 		lds r24,232
 4674               	.LVL414:
 491:LUFA/LUFA/Drivers/USB/Core/AVR8/../AVR8/../AVR8/Endpoint_AVR8.h **** 			}
 4675               		.loc 2 491 14 view .LVU1325
 4676               	.LBE494:
 4677               	.LBE493:
  49:LUFA/LUFA/Drivers/USB/Core/AVR8/Template/Template_Endpoint_Control_R.c **** 		  return ENDPOINT_RWCSTREAM_HostAborted;
 4678               		.loc 5 49 11 view .LVU1326
 4679 0040 83FD      		sbrc r24,3
 4680 0042 00C0      		rjmp .L360
  52:LUFA/LUFA/Drivers/USB/Core/AVR8/Template/Template_Endpoint_Control_R.c **** 		{
 4681               		.loc 5 52 3 is_stmt 1 view .LVU1327
 4682               	.LBB495:
 4683               	.LBI495:
 477:LUFA/LUFA/Drivers/USB/Core/AVR8/../AVR8/../AVR8/Endpoint_AVR8.h **** 			{
 4684               		.loc 2 477 23 view .LVU1328
 4685               	.LBB496:
 479:LUFA/LUFA/Drivers/USB/Core/AVR8/../AVR8/../AVR8/Endpoint_AVR8.h **** 			}
 4686               		.loc 2 479 5 view .LVU1329
 479:LUFA/LUFA/Drivers/USB/Core/AVR8/../AVR8/../AVR8/Endpoint_AVR8.h **** 			}
 4687               		.loc 2 479 14 is_stmt 0 view .LVU1330
 4688 0044 8091 E800 		lds r24,232
 4689               	.LBE496:
 4690               	.LBE495:
  52:LUFA/LUFA/Drivers/USB/Core/AVR8/Template/Template_Endpoint_Control_R.c **** 		{
 4691               		.loc 5 52 6 view .LVU1331
 4692 0048 82FF      		sbrs r24,2
 4693 004a 00C0      		rjmp .L352
 4694               	.L351:
 4695               	.LBB497:
 4696               	.LBI497:
 290:LUFA/LUFA/Drivers/USB/Core/AVR8/../AVR8/../AVR8/Endpoint_AVR8.h **** 			{
 4697               		.loc 2 290 27 is_stmt 1 view .LVU1332
 4698               	.LBB498:
 295:LUFA/LUFA/Drivers/USB/Core/AVR8/../AVR8/../AVR8/Endpoint_AVR8.h **** 				#elif defined(USB_SERIES_2_AVR)
 4699               		.loc 2 295 6 view .LVU1333
 295:LUFA/LUFA/Drivers/USB/Core/AVR8/../AVR8/../AVR8/Endpoint_AVR8.h **** 				#elif defined(USB_SERIES_2_AVR)
 4700               		.loc 2 295 25 is_stmt 0 view .LVU1334
 4701 004c 9091 F300 		lds r25,243
 295:LUFA/LUFA/Drivers/USB/Core/AVR8/../AVR8/../AVR8/Endpoint_AVR8.h **** 				#elif defined(USB_SERIES_2_AVR)
 4702               		.loc 2 295 40 view .LVU1335
 4703 0050 8091 F200 		lds r24,242
 4704               	.LBE498:
 4705               	.LBE497:
  54:LUFA/LUFA/Drivers/USB/Core/AVR8/Template/Template_Endpoint_Control_R.c **** 			{
 4706               		.loc 5 54 18 view .LVU1336
 4707 0054 892B      		or r24,r25
 4708 0056 01F0      		breq .L353
  56:LUFA/LUFA/Drivers/USB/Core/AVR8/Template/Template_Endpoint_Control_R.c **** 				TEMPLATE_BUFFER_MOVE(DataStream, 1);
 4709               		.loc 5 56 5 is_stmt 1 view .LVU1337
 4710               	.LBB499:
 4711               	.LBI499:
 610:LUFA/LUFA/Drivers/USB/Core/AVR8/../AVR8/../AVR8/Endpoint_AVR8.h **** 			{
 4712               		.loc 2 610 26 view .LVU1338
 4713               	.LBB500:
 612:LUFA/LUFA/Drivers/USB/Core/AVR8/../AVR8/../AVR8/Endpoint_AVR8.h **** 			}
 4714               		.loc 2 612 5 view .LVU1339
 612:LUFA/LUFA/Drivers/USB/Core/AVR8/../AVR8/../AVR8/Endpoint_AVR8.h **** 			}
 4715               		.loc 2 612 12 is_stmt 0 view .LVU1340
 4716 0058 6091 F100 		lds r22,241
 4717               	.LBE500:
 4718               	.LBE499:
  56:LUFA/LUFA/Drivers/USB/Core/AVR8/Template/Template_Endpoint_Control_R.c **** 				TEMPLATE_BUFFER_MOVE(DataStream, 1);
 4719               		.loc 5 56 5 view .LVU1341
 4720 005c C801      		movw r24,r16
 4721 005e 0E94 0000 		call eeprom_update_byte
 4722               	.LVL415:
  57:LUFA/LUFA/Drivers/USB/Core/AVR8/Template/Template_Endpoint_Control_R.c **** 				Length--;
 4723               		.loc 5 57 5 is_stmt 1 view .LVU1342
 4724 0062 0F5F      		subi r16,-1
 4725 0064 1F4F      		sbci r17,-1
 4726               	.LVL416:
  58:LUFA/LUFA/Drivers/USB/Core/AVR8/Template/Template_Endpoint_Control_R.c **** 			}
 4727               		.loc 5 58 5 view .LVU1343
  58:LUFA/LUFA/Drivers/USB/Core/AVR8/Template/Template_Endpoint_Control_R.c **** 			}
 4728               		.loc 5 58 11 is_stmt 0 view .LVU1344
 4729 0066 2197      		sbiw r28,1
 4730               	.LVL417:
  54:LUFA/LUFA/Drivers/USB/Core/AVR8/Template/Template_Endpoint_Control_R.c **** 			{
 4731               		.loc 5 54 10 is_stmt 1 view .LVU1345
 4732 0068 01F4      		brne .L351
 4733 006a 00C0      		rjmp .L353
 4734               	.L357:
  54:LUFA/LUFA/Drivers/USB/Core/AVR8/Template/Template_Endpoint_Control_R.c **** 			{
 4735               		.loc 5 54 10 is_stmt 0 view .LVU1346
 4736               	.LBE503:
 4737               	.LBB504:
  67:LUFA/LUFA/Drivers/USB/Core/AVR8/Template/Template_Endpoint_Control_R.c **** 
 4738               		.loc 5 67 3 is_stmt 1 view .LVU1347
  67:LUFA/LUFA/Drivers/USB/Core/AVR8/Template/Template_Endpoint_Control_R.c **** 
 4739               		.loc 5 67 11 is_stmt 0 view .LVU1348
 4740 006c 8EB3      		in r24,0x1e
 4741               	.LVL418:
  69:LUFA/LUFA/Drivers/USB/Core/AVR8/Template/Template_Endpoint_Control_R.c **** 		  return ENDPOINT_RWCSTREAM_DeviceDisconnected;
 4742               		.loc 5 69 3 is_stmt 1 view .LVU1349
  69:LUFA/LUFA/Drivers/USB/Core/AVR8/Template/Template_Endpoint_Control_R.c **** 		  return ENDPOINT_RWCSTREAM_DeviceDisconnected;
 4743               		.loc 5 69 6 is_stmt 0 view .LVU1350
 4744 006e 8823      		tst r24
 4745 0070 01F0      		breq .L361
  71:LUFA/LUFA/Drivers/USB/Core/AVR8/Template/Template_Endpoint_Control_R.c **** 		  return ENDPOINT_RWCSTREAM_BusSuspended;
 4746               		.loc 5 71 8 is_stmt 1 view .LVU1351
  71:LUFA/LUFA/Drivers/USB/Core/AVR8/Template/Template_Endpoint_Control_R.c **** 		  return ENDPOINT_RWCSTREAM_BusSuspended;
 4747               		.loc 5 71 11 is_stmt 0 view .LVU1352
 4748 0072 8530      		cpi r24,lo8(5)
 4749 0074 01F4      		brne .L356
 4750               	.LVL419:
 4751               	.L362:
  71:LUFA/LUFA/Drivers/USB/Core/AVR8/Template/Template_Endpoint_Control_R.c **** 		  return ENDPOINT_RWCSTREAM_BusSuspended;
 4752               		.loc 5 71 11 view .LVU1353
 4753               	.LBE504:
 4754               	.LBB505:
  48:LUFA/LUFA/Drivers/USB/Core/AVR8/Template/Template_Endpoint_Control_R.c **** 		else if (Endpoint_IsSETUPReceived())
 4755               		.loc 5 48 12 view .LVU1354
 4756 0076 83E0      		ldi r24,lo8(3)
 4757 0078 00C0      		rjmp .L347
 4758               	.L360:
  50:LUFA/LUFA/Drivers/USB/Core/AVR8/Template/Template_Endpoint_Control_R.c **** 
 4759               		.loc 5 50 12 view .LVU1355
 4760 007a 81E0      		ldi r24,lo8(1)
 4761 007c 00C0      		rjmp .L347
 4762               	.L361:
  46:LUFA/LUFA/Drivers/USB/Core/AVR8/Template/Template_Endpoint_Control_R.c **** 		else if (USB_DeviceState_LCL == DEVICE_STATE_Suspended)
 4763               		.loc 5 46 12 view .LVU1356
 4764 007e 82E0      		ldi r24,lo8(2)
 4765 0080 00C0      		rjmp .L347
 4766               	.LBE505:
 4767               		.cfi_endproc
 4768               	.LFE101:
 4770               		.section	.text.Endpoint_Read_Control_EStream_BE,"ax",@progbits
 4771               	.global	Endpoint_Read_Control_EStream_BE
 4773               	Endpoint_Read_Control_EStream_BE:
 4774               	.LVL420:
 4775               	.LFB102:
  35:LUFA/LUFA/Drivers/USB/Core/AVR8/Template/Template_Endpoint_Control_R.c **** 	uint8_t* DataStream = ((uint8_t*)Buffer + TEMPLATE_BUFFER_OFFSET(Length));
 4776               		.loc 5 35 1 is_stmt 1 view -0
 4777               		.cfi_startproc
  35:LUFA/LUFA/Drivers/USB/Core/AVR8/Template/Template_Endpoint_Control_R.c **** 	uint8_t* DataStream = ((uint8_t*)Buffer + TEMPLATE_BUFFER_OFFSET(Length));
 4778               		.loc 5 35 1 is_stmt 0 view .LVU1358
 4779 0000 0F93      		push r16
 4780               	.LCFI120:
 4781               		.cfi_def_cfa_offset 3
 4782               		.cfi_offset 16, -2
 4783 0002 1F93      		push r17
 4784               	.LCFI121:
 4785               		.cfi_def_cfa_offset 4
 4786               		.cfi_offset 17, -3
 4787 0004 CF93      		push r28
 4788               	.LCFI122:
 4789               		.cfi_def_cfa_offset 5
 4790               		.cfi_offset 28, -4
 4791 0006 DF93      		push r29
 4792               	.LCFI123:
 4793               		.cfi_def_cfa_offset 6
 4794               		.cfi_offset 29, -5
 4795               	/* prologue: function */
 4796               	/* frame size = 0 */
 4797               	/* stack size = 4 */
 4798               	.L__stack_usage = 4
 4799 0008 EB01      		movw r28,r22
  36:LUFA/LUFA/Drivers/USB/Core/AVR8/Template/Template_Endpoint_Control_R.c **** 
 4800               		.loc 5 36 2 is_stmt 1 view .LVU1359
  36:LUFA/LUFA/Drivers/USB/Core/AVR8/Template/Template_Endpoint_Control_R.c **** 
 4801               		.loc 5 36 42 is_stmt 0 view .LVU1360
 4802 000a 8B01      		movw r16,r22
 4803 000c 0150      		subi r16,1
 4804 000e 1109      		sbc r17,__zero_reg__
  36:LUFA/LUFA/Drivers/USB/Core/AVR8/Template/Template_Endpoint_Control_R.c **** 
 4805               		.loc 5 36 11 view .LVU1361
 4806 0010 080F      		add r16,r24
 4807 0012 191F      		adc r17,r25
 4808               	.LVL421:
  38:LUFA/LUFA/Drivers/USB/Core/AVR8/Template/Template_Endpoint_Control_R.c **** 	  Endpoint_ClearOUT();
 4809               		.loc 5 38 2 is_stmt 1 view .LVU1362
  38:LUFA/LUFA/Drivers/USB/Core/AVR8/Template/Template_Endpoint_Control_R.c **** 	  Endpoint_ClearOUT();
 4810               		.loc 5 38 5 is_stmt 0 view .LVU1363
 4811 0014 2097      		sbiw r28,0
 4812 0016 01F4      		brne .L372
 4813               	.LVL422:
 4814               	.L373:
 4815               	.LBB506:
  61:LUFA/LUFA/Drivers/USB/Core/AVR8/Template/Template_Endpoint_Control_R.c **** 		}
 4816               		.loc 5 61 4 is_stmt 1 view .LVU1364
 4817               	.LBB507:
 4818               	.LBI507:
 528:LUFA/LUFA/Drivers/USB/Core/AVR8/../AVR8/../AVR8/Endpoint_AVR8.h **** 			{
 4819               		.loc 2 528 23 view .LVU1365
 4820               	.LBB508:
 531:LUFA/LUFA/Drivers/USB/Core/AVR8/../AVR8/../AVR8/Endpoint_AVR8.h **** 				#else
 4821               		.loc 2 531 6 view .LVU1366
 531:LUFA/LUFA/Drivers/USB/Core/AVR8/../AVR8/../AVR8/Endpoint_AVR8.h **** 				#else
 4822               		.loc 2 531 13 is_stmt 0 view .LVU1367
 4823 0018 8091 E800 		lds r24,232
 4824 001c 8B77      		andi r24,lo8(123)
 4825 001e 8093 E800 		sts 232,r24
 4826               	.L372:
 531:LUFA/LUFA/Drivers/USB/Core/AVR8/../AVR8/../AVR8/Endpoint_AVR8.h **** 				#else
 4827               		.loc 2 531 13 view .LVU1368
 4828               	.LBE508:
 4829               	.LBE507:
 4830               	.LBE506:
  41:LUFA/LUFA/Drivers/USB/Core/AVR8/Template/Template_Endpoint_Control_R.c **** 	{
 4831               		.loc 5 41 8 is_stmt 1 view .LVU1369
 4832 0022 2097      		sbiw r28,0
 4833 0024 01F4      		brne .L375
 4834               	.L376:
  65:LUFA/LUFA/Drivers/USB/Core/AVR8/Template/Template_Endpoint_Control_R.c **** 	{
 4835               		.loc 5 65 8 view .LVU1370
 4836               	.LBB517:
 4837               	.LBI517:
 465:LUFA/LUFA/Drivers/USB/Core/AVR8/../AVR8/../AVR8/Endpoint_AVR8.h **** 			{
 4838               		.loc 2 465 23 view .LVU1371
 4839               	.LBB518:
 467:LUFA/LUFA/Drivers/USB/Core/AVR8/../AVR8/../AVR8/Endpoint_AVR8.h **** 			}
 4840               		.loc 2 467 5 view .LVU1372
 467:LUFA/LUFA/Drivers/USB/Core/AVR8/../AVR8/../AVR8/Endpoint_AVR8.h **** 			}
 4841               		.loc 2 467 14 is_stmt 0 view .LVU1373
 4842 0026 8091 E800 		lds r24,232
 4843               	.LBE518:
 4844               	.LBE517:
  65:LUFA/LUFA/Drivers/USB/Core/AVR8/Template/Template_Endpoint_Control_R.c **** 	{
 4845               		.loc 5 65 8 view .LVU1374
 4846 002a 80FF      		sbrs r24,0
 4847 002c 00C0      		rjmp .L377
  75:LUFA/LUFA/Drivers/USB/Core/AVR8/Template/Template_Endpoint_Control_R.c **** }
 4848               		.loc 5 75 9 view .LVU1375
 4849 002e 80E0      		ldi r24,0
 4850               	.L367:
 4851               	/* epilogue start */
 4852               		.loc 5 76 1 view .LVU1376
 4853 0030 DF91      		pop r29
 4854 0032 CF91      		pop r28
 4855               	.LVL423:
 4856               		.loc 5 76 1 view .LVU1377
 4857 0034 1F91      		pop r17
 4858 0036 0F91      		pop r16
 4859               	.LVL424:
 4860               		.loc 5 76 1 view .LVU1378
 4861 0038 0895      		ret
 4862               	.LVL425:
 4863               	.L375:
 4864               	.LBB519:
  43:LUFA/LUFA/Drivers/USB/Core/AVR8/Template/Template_Endpoint_Control_R.c **** 
 4865               		.loc 5 43 3 is_stmt 1 view .LVU1379
  43:LUFA/LUFA/Drivers/USB/Core/AVR8/Template/Template_Endpoint_Control_R.c **** 
 4866               		.loc 5 43 11 is_stmt 0 view .LVU1380
 4867 003a 8EB3      		in r24,0x1e
 4868               	.LVL426:
  45:LUFA/LUFA/Drivers/USB/Core/AVR8/Template/Template_Endpoint_Control_R.c **** 		  return ENDPOINT_RWCSTREAM_DeviceDisconnected;
 4869               		.loc 5 45 3 is_stmt 1 view .LVU1381
  45:LUFA/LUFA/Drivers/USB/Core/AVR8/Template/Template_Endpoint_Control_R.c **** 		  return ENDPOINT_RWCSTREAM_DeviceDisconnected;
 4870               		.loc 5 45 6 is_stmt 0 view .LVU1382
 4871 003c 8823      		tst r24
 4872 003e 01F0      		breq .L381
  47:LUFA/LUFA/Drivers/USB/Core/AVR8/Template/Template_Endpoint_Control_R.c **** 		  return ENDPOINT_RWCSTREAM_BusSuspended;
 4873               		.loc 5 47 8 is_stmt 1 view .LVU1383
  47:LUFA/LUFA/Drivers/USB/Core/AVR8/Template/Template_Endpoint_Control_R.c **** 		  return ENDPOINT_RWCSTREAM_BusSuspended;
 4874               		.loc 5 47 11 is_stmt 0 view .LVU1384
 4875 0040 8530      		cpi r24,lo8(5)
 4876 0042 01F0      		breq .L382
  49:LUFA/LUFA/Drivers/USB/Core/AVR8/Template/Template_Endpoint_Control_R.c **** 		  return ENDPOINT_RWCSTREAM_HostAborted;
 4877               		.loc 5 49 8 is_stmt 1 view .LVU1385
 4878               	.LBB509:
 4879               	.LBI509:
 489:LUFA/LUFA/Drivers/USB/Core/AVR8/../AVR8/../AVR8/Endpoint_AVR8.h **** 			{
 4880               		.loc 2 489 23 view .LVU1386
 4881               	.LBB510:
 491:LUFA/LUFA/Drivers/USB/Core/AVR8/../AVR8/../AVR8/Endpoint_AVR8.h **** 			}
 4882               		.loc 2 491 5 view .LVU1387
 491:LUFA/LUFA/Drivers/USB/Core/AVR8/../AVR8/../AVR8/Endpoint_AVR8.h **** 			}
 4883               		.loc 2 491 14 is_stmt 0 view .LVU1388
 4884 0044 8091 E800 		lds r24,232
 4885               	.LVL427:
 491:LUFA/LUFA/Drivers/USB/Core/AVR8/../AVR8/../AVR8/Endpoint_AVR8.h **** 			}
 4886               		.loc 2 491 14 view .LVU1389
 4887               	.LBE510:
 4888               	.LBE509:
  49:LUFA/LUFA/Drivers/USB/Core/AVR8/Template/Template_Endpoint_Control_R.c **** 		  return ENDPOINT_RWCSTREAM_HostAborted;
 4889               		.loc 5 49 11 view .LVU1390
 4890 0048 83FD      		sbrc r24,3
 4891 004a 00C0      		rjmp .L380
  52:LUFA/LUFA/Drivers/USB/Core/AVR8/Template/Template_Endpoint_Control_R.c **** 		{
 4892               		.loc 5 52 3 is_stmt 1 view .LVU1391
 4893               	.LBB511:
 4894               	.LBI511:
 477:LUFA/LUFA/Drivers/USB/Core/AVR8/../AVR8/../AVR8/Endpoint_AVR8.h **** 			{
 4895               		.loc 2 477 23 view .LVU1392
 4896               	.LBB512:
 479:LUFA/LUFA/Drivers/USB/Core/AVR8/../AVR8/../AVR8/Endpoint_AVR8.h **** 			}
 4897               		.loc 2 479 5 view .LVU1393
 479:LUFA/LUFA/Drivers/USB/Core/AVR8/../AVR8/../AVR8/Endpoint_AVR8.h **** 			}
 4898               		.loc 2 479 14 is_stmt 0 view .LVU1394
 4899 004c 8091 E800 		lds r24,232
 4900               	.LBE512:
 4901               	.LBE511:
  52:LUFA/LUFA/Drivers/USB/Core/AVR8/Template/Template_Endpoint_Control_R.c **** 		{
 4902               		.loc 5 52 6 view .LVU1395
 4903 0050 82FF      		sbrs r24,2
 4904 0052 00C0      		rjmp .L372
 4905               	.L371:
 4906               	.LBB513:
 4907               	.LBI513:
 290:LUFA/LUFA/Drivers/USB/Core/AVR8/../AVR8/../AVR8/Endpoint_AVR8.h **** 			{
 4908               		.loc 2 290 27 is_stmt 1 view .LVU1396
 4909               	.LBB514:
 295:LUFA/LUFA/Drivers/USB/Core/AVR8/../AVR8/../AVR8/Endpoint_AVR8.h **** 				#elif defined(USB_SERIES_2_AVR)
 4910               		.loc 2 295 6 view .LVU1397
 295:LUFA/LUFA/Drivers/USB/Core/AVR8/../AVR8/../AVR8/Endpoint_AVR8.h **** 				#elif defined(USB_SERIES_2_AVR)
 4911               		.loc 2 295 25 is_stmt 0 view .LVU1398
 4912 0054 9091 F300 		lds r25,243
 295:LUFA/LUFA/Drivers/USB/Core/AVR8/../AVR8/../AVR8/Endpoint_AVR8.h **** 				#elif defined(USB_SERIES_2_AVR)
 4913               		.loc 2 295 40 view .LVU1399
 4914 0058 8091 F200 		lds r24,242
 4915               	.LBE514:
 4916               	.LBE513:
  54:LUFA/LUFA/Drivers/USB/Core/AVR8/Template/Template_Endpoint_Control_R.c **** 			{
 4917               		.loc 5 54 18 view .LVU1400
 4918 005c 892B      		or r24,r25
 4919 005e 01F0      		breq .L373
  56:LUFA/LUFA/Drivers/USB/Core/AVR8/Template/Template_Endpoint_Control_R.c **** 				TEMPLATE_BUFFER_MOVE(DataStream, 1);
 4920               		.loc 5 56 5 is_stmt 1 view .LVU1401
 4921               	.LBB515:
 4922               	.LBI515:
 610:LUFA/LUFA/Drivers/USB/Core/AVR8/../AVR8/../AVR8/Endpoint_AVR8.h **** 			{
 4923               		.loc 2 610 26 view .LVU1402
 4924               	.LBB516:
 612:LUFA/LUFA/Drivers/USB/Core/AVR8/../AVR8/../AVR8/Endpoint_AVR8.h **** 			}
 4925               		.loc 2 612 5 view .LVU1403
 612:LUFA/LUFA/Drivers/USB/Core/AVR8/../AVR8/../AVR8/Endpoint_AVR8.h **** 			}
 4926               		.loc 2 612 12 is_stmt 0 view .LVU1404
 4927 0060 6091 F100 		lds r22,241
 4928               	.LBE516:
 4929               	.LBE515:
  56:LUFA/LUFA/Drivers/USB/Core/AVR8/Template/Template_Endpoint_Control_R.c **** 				TEMPLATE_BUFFER_MOVE(DataStream, 1);
 4930               		.loc 5 56 5 view .LVU1405
 4931 0064 C801      		movw r24,r16
 4932 0066 0E94 0000 		call eeprom_update_byte
 4933               	.LVL428:
  57:LUFA/LUFA/Drivers/USB/Core/AVR8/Template/Template_Endpoint_Control_R.c **** 				Length--;
 4934               		.loc 5 57 5 is_stmt 1 view .LVU1406
 4935 006a 0150      		subi r16,1
 4936 006c 1109      		sbc r17,__zero_reg__
 4937               	.LVL429:
  58:LUFA/LUFA/Drivers/USB/Core/AVR8/Template/Template_Endpoint_Control_R.c **** 			}
 4938               		.loc 5 58 5 view .LVU1407
  58:LUFA/LUFA/Drivers/USB/Core/AVR8/Template/Template_Endpoint_Control_R.c **** 			}
 4939               		.loc 5 58 11 is_stmt 0 view .LVU1408
 4940 006e 2197      		sbiw r28,1
 4941               	.LVL430:
  54:LUFA/LUFA/Drivers/USB/Core/AVR8/Template/Template_Endpoint_Control_R.c **** 			{
 4942               		.loc 5 54 10 is_stmt 1 view .LVU1409
 4943 0070 01F4      		brne .L371
 4944 0072 00C0      		rjmp .L373
 4945               	.L377:
  54:LUFA/LUFA/Drivers/USB/Core/AVR8/Template/Template_Endpoint_Control_R.c **** 			{
 4946               		.loc 5 54 10 is_stmt 0 view .LVU1410
 4947               	.LBE519:
 4948               	.LBB520:
  67:LUFA/LUFA/Drivers/USB/Core/AVR8/Template/Template_Endpoint_Control_R.c **** 
 4949               		.loc 5 67 3 is_stmt 1 view .LVU1411
  67:LUFA/LUFA/Drivers/USB/Core/AVR8/Template/Template_Endpoint_Control_R.c **** 
 4950               		.loc 5 67 11 is_stmt 0 view .LVU1412
 4951 0074 8EB3      		in r24,0x1e
 4952               	.LVL431:
  69:LUFA/LUFA/Drivers/USB/Core/AVR8/Template/Template_Endpoint_Control_R.c **** 		  return ENDPOINT_RWCSTREAM_DeviceDisconnected;
 4953               		.loc 5 69 3 is_stmt 1 view .LVU1413
  69:LUFA/LUFA/Drivers/USB/Core/AVR8/Template/Template_Endpoint_Control_R.c **** 		  return ENDPOINT_RWCSTREAM_DeviceDisconnected;
 4954               		.loc 5 69 6 is_stmt 0 view .LVU1414
 4955 0076 8823      		tst r24
 4956 0078 01F0      		breq .L381
  71:LUFA/LUFA/Drivers/USB/Core/AVR8/Template/Template_Endpoint_Control_R.c **** 		  return ENDPOINT_RWCSTREAM_BusSuspended;
 4957               		.loc 5 71 8 is_stmt 1 view .LVU1415
  71:LUFA/LUFA/Drivers/USB/Core/AVR8/Template/Template_Endpoint_Control_R.c **** 		  return ENDPOINT_RWCSTREAM_BusSuspended;
 4958               		.loc 5 71 11 is_stmt 0 view .LVU1416
 4959 007a 8530      		cpi r24,lo8(5)
 4960 007c 01F4      		brne .L376
 4961               	.LVL432:
 4962               	.L382:
  71:LUFA/LUFA/Drivers/USB/Core/AVR8/Template/Template_Endpoint_Control_R.c **** 		  return ENDPOINT_RWCSTREAM_BusSuspended;
 4963               		.loc 5 71 11 view .LVU1417
 4964               	.LBE520:
 4965               	.LBB521:
  48:LUFA/LUFA/Drivers/USB/Core/AVR8/Template/Template_Endpoint_Control_R.c **** 		else if (Endpoint_IsSETUPReceived())
 4966               		.loc 5 48 12 view .LVU1418
 4967 007e 83E0      		ldi r24,lo8(3)
 4968 0080 00C0      		rjmp .L367
 4969               	.L380:
  50:LUFA/LUFA/Drivers/USB/Core/AVR8/Template/Template_Endpoint_Control_R.c **** 
 4970               		.loc 5 50 12 view .LVU1419
 4971 0082 81E0      		ldi r24,lo8(1)
 4972 0084 00C0      		rjmp .L367
 4973               	.L381:
  46:LUFA/LUFA/Drivers/USB/Core/AVR8/Template/Template_Endpoint_Control_R.c **** 		else if (USB_DeviceState_LCL == DEVICE_STATE_Suspended)
 4974               		.loc 5 46 12 view .LVU1420
 4975 0086 82E0      		ldi r24,lo8(2)
 4976 0088 00C0      		rjmp .L367
 4977               	.LBE521:
 4978               		.cfi_endproc
 4979               	.LFE102:
 4981               		.text
 4982               	.Letext0:
 4983               		.file 6 "/mnt/Work/dev/avr8-gcc10/avr/include/stdint.h"
 4984               		.file 7 "LUFA/LUFA/Drivers/USB/Core/AVR8/../AVR8/../StdRequestType.h"
 4985               		.file 8 "LUFA/LUFA/Drivers/USB/Core/AVR8/../AVR8/../Device.h"
 4986               		.file 9 "LUFA/LUFA/Drivers/USB/Core/AVR8/../AVR8/../EndpointStream.h"
 4987               		.file 10 "LUFA/LUFA/Drivers/USB/Core/AVR8/../USBTask.h"
 4988               		.file 11 "/mnt/Work/dev/avr8-gcc10/avr/include/avr/eeprom.h"
DEFINED SYMBOLS
                            *ABS*:0000000000000000 EndpointStream_AVR8.c
     /tmp/ccLHu2eB.s:2      *ABS*:000000000000003e __SP_H__
     /tmp/ccLHu2eB.s:3      *ABS*:000000000000003d __SP_L__
     /tmp/ccLHu2eB.s:4      *ABS*:000000000000003f __SREG__
     /tmp/ccLHu2eB.s:5      *ABS*:0000000000000000 __tmp_reg__
     /tmp/ccLHu2eB.s:6      *ABS*:0000000000000001 __zero_reg__
     /tmp/ccLHu2eB.s:13     .text.Endpoint_Discard_Stream:0000000000000000 Endpoint_Discard_Stream
     /tmp/ccLHu2eB.s:194    .text.Endpoint_Null_Stream:0000000000000000 Endpoint_Null_Stream
     /tmp/ccLHu2eB.s:373    .text.Endpoint_Write_Stream_LE:0000000000000000 Endpoint_Write_Stream_LE
     /tmp/ccLHu2eB.s:580    .text.Endpoint_Write_Stream_BE:0000000000000000 Endpoint_Write_Stream_BE
     /tmp/ccLHu2eB.s:796    .text.Endpoint_Read_Stream_LE:0000000000000000 Endpoint_Read_Stream_LE
     /tmp/ccLHu2eB.s:1001   .text.Endpoint_Read_Stream_BE:0000000000000000 Endpoint_Read_Stream_BE
     /tmp/ccLHu2eB.s:1215   .text.Endpoint_Write_PStream_LE:0000000000000000 Endpoint_Write_PStream_LE
     /tmp/ccLHu2eB.s:1435   .text.Endpoint_Write_PStream_BE:0000000000000000 Endpoint_Write_PStream_BE
     /tmp/ccLHu2eB.s:1664   .text.Endpoint_Write_EStream_LE:0000000000000000 Endpoint_Write_EStream_LE
     /tmp/ccLHu2eB.s:1872   .text.Endpoint_Write_EStream_BE:0000000000000000 Endpoint_Write_EStream_BE
     /tmp/ccLHu2eB.s:2089   .text.Endpoint_Read_EStream_LE:0000000000000000 Endpoint_Read_EStream_LE
     /tmp/ccLHu2eB.s:2296   .text.Endpoint_Read_EStream_BE:0000000000000000 Endpoint_Read_EStream_BE
     /tmp/ccLHu2eB.s:2512   .text.Endpoint_Write_Control_Stream_LE:0000000000000000 Endpoint_Write_Control_Stream_LE
     /tmp/ccLHu2eB.s:2770   .text.Endpoint_Write_Control_Stream_BE:0000000000000000 Endpoint_Write_Control_Stream_BE
     /tmp/ccLHu2eB.s:3041   .text.Endpoint_Read_Control_Stream_LE:0000000000000000 Endpoint_Read_Control_Stream_LE
     /tmp/ccLHu2eB.s:3225   .text.Endpoint_Read_Control_Stream_BE:0000000000000000 Endpoint_Read_Control_Stream_BE
     /tmp/ccLHu2eB.s:3410   .text.Endpoint_Write_Control_PStream_LE:0000000000000000 Endpoint_Write_Control_PStream_LE
     /tmp/ccLHu2eB.s:3681   .text.Endpoint_Write_Control_PStream_BE:0000000000000000 Endpoint_Write_Control_PStream_BE
     /tmp/ccLHu2eB.s:3965   .text.Endpoint_Write_Control_EStream_LE:0000000000000000 Endpoint_Write_Control_EStream_LE
     /tmp/ccLHu2eB.s:4263   .text.Endpoint_Write_Control_EStream_BE:0000000000000000 Endpoint_Write_Control_EStream_BE
     /tmp/ccLHu2eB.s:4568   .text.Endpoint_Read_Control_EStream_LE:0000000000000000 Endpoint_Read_Control_EStream_LE
     /tmp/ccLHu2eB.s:4773   .text.Endpoint_Read_Control_EStream_BE:0000000000000000 Endpoint_Read_Control_EStream_BE

UNDEFINED SYMBOLS
Endpoint_WaitUntilReady
USB_USBTask
eeprom_read_byte
eeprom_update_byte
USB_ControlRequest
